0000000000001189 <f122323>:
    1189:	f3 0f 1e fa          	endbr64 
    118d:	55                   	push   rbp
    118e:	48 89 e5             	mov    rbp,rsp
    1191:	89 f8                	mov    eax,edi
    1193:	88 45 fc             	mov    BYTE PTR [rbp-0x4],al
    1196:	0f be 45 fc          	movsx  eax,BYTE PTR [rbp-0x4]
    119a:	c1 e0 04             	shl    eax,0x4
    119d:	0f b6 d0             	movzx  edx,al
    11a0:	0f b6 45 fc          	movzx  eax,BYTE PTR [rbp-0x4]
    11a4:	c0 f8 04             	sar    al,0x4
    11a7:	0f be c0             	movsx  eax,al
    11aa:	01 d0                	add    eax,edx
    11ac:	83 f8 46             	cmp    eax,0x46
    11af:	0f 94 c0             	sete   al
    11b2:	5d                   	pop    rbp
    11b3:	c3                   	ret    

00000000000011b4 <f7093176>:
    11b4:	f3 0f 1e fa          	endbr64 
    11b8:	55                   	push   rbp
    11b9:	48 89 e5             	mov    rbp,rsp
    11bc:	89 f8                	mov    eax,edi
    11be:	88 45 fc             	mov    BYTE PTR [rbp-0x4],al
    11c1:	0f be 45 fc          	movsx  eax,BYTE PTR [rbp-0x4]
    11c5:	c1 e0 04             	shl    eax,0x4
    11c8:	0f b6 d0             	movzx  edx,al
    11cb:	0f b6 45 fc          	movzx  eax,BYTE PTR [rbp-0x4]
    11cf:	c0 f8 04             	sar    al,0x4
    11d2:	0f be c0             	movsx  eax,al
    11d5:	01 d0                	add    eax,edx
    11d7:	83 f8 16             	cmp    eax,0x16
    11da:	0f 94 c0             	sete   al
    11dd:	5d                   	pop    rbp
    11de:	c3                   	ret    

00000000000011df <f2267326>:
    11df:	f3 0f 1e fa          	endbr64 
    11e3:	55                   	push   rbp
    11e4:	48 89 e5             	mov    rbp,rsp
    11e7:	89 f8                	mov    eax,edi
    11e9:	88 45 fc             	mov    BYTE PTR [rbp-0x4],al
    11ec:	0f be 45 fc          	movsx  eax,BYTE PTR [rbp-0x4]
    11f0:	c1 e0 04             	shl    eax,0x4
    11f3:	0f b6 d0             	movzx  edx,al
    11f6:	0f b6 45 fc          	movzx  eax,BYTE PTR [rbp-0x4]
    11fa:	c0 f8 04             	sar    al,0x4
    11fd:	0f be c0             	movsx  eax,al
    1200:	01 d0                	add    eax,edx
    1202:	83 f8 27             	cmp    eax,0x27
    1205:	0f 94 c0             	sete   al
    1208:	5d                   	pop    rbp
    1209:	c3                   	ret    

000000000000120a <f3113161>:
    120a:	f3 0f 1e fa          	endbr64 
    120e:	55                   	push   rbp
    120f:	48 89 e5             	mov    rbp,rsp
    1212:	89 f8                	mov    eax,edi
    1214:	88 45 fc             	mov    BYTE PTR [rbp-0x4],al
    1217:	0f be 45 fc          	movsx  eax,BYTE PTR [rbp-0x4]
    121b:	c1 e0 04             	shl    eax,0x4
    121e:	0f b6 d0             	movzx  edx,al
    1221:	0f b6 45 fc          	movzx  eax,BYTE PTR [rbp-0x4]
    1225:	c0 f8 04             	sar    al,0x4
    1228:	0f be c0             	movsx  eax,al
    122b:	01 d0                	add    eax,edx
    122d:	3d b6 00 00 00       	cmp    eax,0xb6
    1232:	0f 94 c0             	sete   al
    1235:	5d                   	pop    rbp
    1236:	c3                   	ret    

0000000000001237 <f6910364>:
    1237:	f3 0f 1e fa          	endbr64 
    123b:	55                   	push   rbp
    123c:	48 89 e5             	mov    rbp,rsp
    123f:	89 f8                	mov    eax,edi
    1241:	88 45 fc             	mov    BYTE PTR [rbp-0x4],al
    1244:	0f be 45 fc          	movsx  eax,BYTE PTR [rbp-0x4]
    1248:	c1 e0 04             	shl    eax,0x4
    124b:	0f b6 d0             	movzx  edx,al
    124e:	0f b6 45 fc          	movzx  eax,BYTE PTR [rbp-0x4]
    1252:	c0 f8 04             	sar    al,0x4
    1255:	0f be c0             	movsx  eax,al
    1258:	01 d0                	add    eax,edx
    125a:	83 f8 34             	cmp    eax,0x34
    125d:	0f 94 c0             	sete   al
    1260:	5d                   	pop    rbp
    1261:	c3                   	ret    

0000000000001262 <f4838080>:
    1262:	f3 0f 1e fa          	endbr64 
    1266:	55                   	push   rbp
    1267:	48 89 e5             	mov    rbp,rsp
    126a:	89 f8                	mov    eax,edi
    126c:	88 45 fc             	mov    BYTE PTR [rbp-0x4],al
    126f:	0f be 45 fc          	movsx  eax,BYTE PTR [rbp-0x4]
    1273:	c1 e0 04             	shl    eax,0x4
    1276:	0f b6 d0             	movzx  edx,al
    1279:	0f b6 45 fc          	movzx  eax,BYTE PTR [rbp-0x4]
    127d:	c0 f8 04             	sar    al,0x4
    1280:	0f be c0             	movsx  eax,al
    1283:	01 d0                	add    eax,edx
    1285:	3d f4 00 00 00       	cmp    eax,0xf4
    128a:	0f 94 c0             	sete   al
    128d:	5d                   	pop    rbp
    128e:	c3                   	ret    

000000000000128f <f3576179>:
    128f:	f3 0f 1e fa          	endbr64 
    1293:	55                   	push   rbp
    1294:	48 89 e5             	mov    rbp,rsp
    1297:	89 f8                	mov    eax,edi
    1299:	88 45 fc             	mov    BYTE PTR [rbp-0x4],al
    129c:	0f be 45 fc          	movsx  eax,BYTE PTR [rbp-0x4]
    12a0:	c1 e0 04             	shl    eax,0x4
    12a3:	0f b6 d0             	movzx  edx,al
    12a6:	0f b6 45 fc          	movzx  eax,BYTE PTR [rbp-0x4]
    12aa:	c0 f8 04             	sar    al,0x4
    12ad:	0f be c0             	movsx  eax,al
    12b0:	01 d0                	add    eax,edx
    12b2:	3d e4 00 00 00       	cmp    eax,0xe4
    12b7:	0f 94 c0             	sete   al
    12ba:	5d                   	pop    rbp
    12bb:	c3                   	ret    

00000000000012bc <f1715128>:
    12bc:	f3 0f 1e fa          	endbr64 
    12c0:	55                   	push   rbp
    12c1:	48 89 e5             	mov    rbp,rsp
    12c4:	89 f8                	mov    eax,edi
    12c6:	88 45 fc             	mov    BYTE PTR [rbp-0x4],al
    12c9:	0f be 45 fc          	movsx  eax,BYTE PTR [rbp-0x4]
    12cd:	c1 e0 04             	shl    eax,0x4
    12d0:	0f b6 d0             	movzx  edx,al
    12d3:	0f b6 45 fc          	movzx  eax,BYTE PTR [rbp-0x4]
    12d7:	c0 f8 04             	sar    al,0x4
    12da:	0f be c0             	movsx  eax,al
    12dd:	01 d0                	add    eax,edx
    12df:	3d b7 00 00 00       	cmp    eax,0xb7
    12e4:	0f 94 c0             	sete   al
    12e7:	5d                   	pop    rbp
    12e8:	c3                   	ret    

00000000000012e9 <f4029468>:
    12e9:	f3 0f 1e fa          	endbr64 
    12ed:	55                   	push   rbp
    12ee:	48 89 e5             	mov    rbp,rsp
    12f1:	89 f8                	mov    eax,edi
    12f3:	88 45 fc             	mov    BYTE PTR [rbp-0x4],al
    12f6:	0f be 45 fc          	movsx  eax,BYTE PTR [rbp-0x4]
    12fa:	c1 e0 04             	shl    eax,0x4
    12fd:	0f b6 d0             	movzx  edx,al
    1300:	0f b6 45 fc          	movzx  eax,BYTE PTR [rbp-0x4]
    1304:	c0 f8 04             	sar    al,0x4
    1307:	0f be c0             	movsx  eax,al
    130a:	01 d0                	add    eax,edx
    130c:	83 f8 43             	cmp    eax,0x43
    130f:	0f 94 c0             	sete   al
    1312:	5d                   	pop    rbp
    1313:	c3                   	ret    

0000000000001314 <f5723857>:
    1314:	f3 0f 1e fa          	endbr64 
    1318:	55                   	push   rbp
    1319:	48 89 e5             	mov    rbp,rsp
    131c:	89 f8                	mov    eax,edi
    131e:	88 45 fc             	mov    BYTE PTR [rbp-0x4],al
    1321:	0f be 45 fc          	movsx  eax,BYTE PTR [rbp-0x4]
    1325:	c1 e0 04             	shl    eax,0x4
    1328:	0f b6 d0             	movzx  edx,al
    132b:	0f b6 45 fc          	movzx  eax,BYTE PTR [rbp-0x4]
    132f:	c0 f8 04             	sar    al,0x4
    1332:	0f be c0             	movsx  eax,al
    1335:	01 d0                	add    eax,edx
    1337:	83 f8 27             	cmp    eax,0x27
    133a:	0f 94 c0             	sete   al
    133d:	5d                   	pop    rbp
    133e:	c3                   	ret    

000000000000133f <f5333530>:
    133f:	f3 0f 1e fa          	endbr64 
    1343:	55                   	push   rbp
    1344:	48 89 e5             	mov    rbp,rsp
    1347:	89 f8                	mov    eax,edi
    1349:	88 45 fc             	mov    BYTE PTR [rbp-0x4],al
    134c:	0f be 45 fc          	movsx  eax,BYTE PTR [rbp-0x4]
    1350:	c1 e0 04             	shl    eax,0x4
    1353:	0f b6 d0             	movzx  edx,al
    1356:	0f b6 45 fc          	movzx  eax,BYTE PTR [rbp-0x4]
    135a:	c0 f8 04             	sar    al,0x4
    135d:	0f be c0             	movsx  eax,al
    1360:	01 d0                	add    eax,edx
    1362:	83 f8 33             	cmp    eax,0x33
    1365:	0f 94 c0             	sete   al
    1368:	5d                   	pop    rbp
    1369:	c3                   	ret    

000000000000136a <f2200656>:
    136a:	f3 0f 1e fa          	endbr64 
    136e:	55                   	push   rbp
    136f:	48 89 e5             	mov    rbp,rsp
    1372:	89 f8                	mov    eax,edi
    1374:	88 45 fc             	mov    BYTE PTR [rbp-0x4],al
    1377:	0f be 45 fc          	movsx  eax,BYTE PTR [rbp-0x4]
    137b:	c1 e0 04             	shl    eax,0x4
    137e:	0f b6 d0             	movzx  edx,al
    1381:	0f b6 45 fc          	movzx  eax,BYTE PTR [rbp-0x4]
    1385:	c0 f8 04             	sar    al,0x4
    1388:	0f be c0             	movsx  eax,al
    138b:	01 d0                	add    eax,edx
    138d:	3d f5 00 00 00       	cmp    eax,0xf5
    1392:	0f 94 c0             	sete   al
    1395:	5d                   	pop    rbp
    1396:	c3                   	ret    

0000000000001397 <f5832933>:
    1397:	f3 0f 1e fa          	endbr64 
    139b:	55                   	push   rbp
    139c:	48 89 e5             	mov    rbp,rsp
    139f:	89 f8                	mov    eax,edi
    13a1:	88 45 fc             	mov    BYTE PTR [rbp-0x4],al
    13a4:	0f be 45 fc          	movsx  eax,BYTE PTR [rbp-0x4]
    13a8:	c1 e0 04             	shl    eax,0x4
    13ab:	0f b6 d0             	movzx  edx,al
    13ae:	0f b6 45 fc          	movzx  eax,BYTE PTR [rbp-0x4]
    13b2:	c0 f8 04             	sar    al,0x4
    13b5:	0f be c0             	movsx  eax,al
    13b8:	01 d0                	add    eax,edx
    13ba:	3d 97 00 00 00       	cmp    eax,0x97
    13bf:	0f 94 c0             	sete   al
    13c2:	5d                   	pop    rbp
    13c3:	c3                   	ret    

00000000000013c4 <f162470>:
    13c4:	f3 0f 1e fa          	endbr64 
    13c8:	55                   	push   rbp
    13c9:	48 89 e5             	mov    rbp,rsp
    13cc:	89 f8                	mov    eax,edi
    13ce:	88 45 fc             	mov    BYTE PTR [rbp-0x4],al
    13d1:	0f be 45 fc          	movsx  eax,BYTE PTR [rbp-0x4]
    13d5:	c1 e0 04             	shl    eax,0x4
    13d8:	0f b6 d0             	movzx  edx,al
    13db:	0f b6 45 fc          	movzx  eax,BYTE PTR [rbp-0x4]
    13df:	c0 f8 04             	sar    al,0x4
    13e2:	0f be c0             	movsx  eax,al
    13e5:	01 d0                	add    eax,edx
    13e7:	83 f8 03             	cmp    eax,0x3
    13ea:	0f 94 c0             	sete   al
    13ed:	5d                   	pop    rbp
    13ee:	c3                   	ret    

00000000000013ef <f9363706>:
    13ef:	f3 0f 1e fa          	endbr64 
    13f3:	55                   	push   rbp
    13f4:	48 89 e5             	mov    rbp,rsp
    13f7:	89 f8                	mov    eax,edi
    13f9:	88 45 fc             	mov    BYTE PTR [rbp-0x4],al
    13fc:	0f be 45 fc          	movsx  eax,BYTE PTR [rbp-0x4]
    1400:	c1 e0 04             	shl    eax,0x4
    1403:	0f b6 d0             	movzx  edx,al
    1406:	0f b6 45 fc          	movzx  eax,BYTE PTR [rbp-0x4]
    140a:	c0 f8 04             	sar    al,0x4
    140d:	0f be c0             	movsx  eax,al
    1410:	01 d0                	add    eax,edx
    1412:	83 f8 57             	cmp    eax,0x57
    1415:	0f 94 c0             	sete   al
    1418:	5d                   	pop    rbp
    1419:	c3                   	ret    

000000000000141a <f8682222>:
    141a:	f3 0f 1e fa          	endbr64 
    141e:	55                   	push   rbp
    141f:	48 89 e5             	mov    rbp,rsp
    1422:	89 f8                	mov    eax,edi
    1424:	88 45 fc             	mov    BYTE PTR [rbp-0x4],al
    1427:	0f be 45 fc          	movsx  eax,BYTE PTR [rbp-0x4]
    142b:	c1 e0 04             	shl    eax,0x4
    142e:	0f b6 d0             	movzx  edx,al
    1431:	0f b6 45 fc          	movzx  eax,BYTE PTR [rbp-0x4]
    1435:	c0 f8 04             	sar    al,0x4
    1438:	0f be c0             	movsx  eax,al
    143b:	01 d0                	add    eax,edx
    143d:	3d f5 00 00 00       	cmp    eax,0xf5
    1442:	0f 94 c0             	sete   al
    1445:	5d                   	pop    rbp
    1446:	c3                   	ret    

0000000000001447 <f5150019>:
    1447:	f3 0f 1e fa          	endbr64 
    144b:	55                   	push   rbp
    144c:	48 89 e5             	mov    rbp,rsp
    144f:	89 f8                	mov    eax,edi
    1451:	88 45 fc             	mov    BYTE PTR [rbp-0x4],al
    1454:	0f be 45 fc          	movsx  eax,BYTE PTR [rbp-0x4]
    1458:	c1 e0 04             	shl    eax,0x4
    145b:	0f b6 d0             	movzx  edx,al
    145e:	0f b6 45 fc          	movzx  eax,BYTE PTR [rbp-0x4]
    1462:	c0 f8 04             	sar    al,0x4
    1465:	0f be c0             	movsx  eax,al
    1468:	01 d0                	add    eax,edx
    146a:	83 f8 27             	cmp    eax,0x27
    146d:	0f 94 c0             	sete   al
    1470:	5d                   	pop    rbp
    1471:	c3                   	ret    

0000000000001472 <f846013>:
    1472:	f3 0f 1e fa          	endbr64 
    1476:	55                   	push   rbp
    1477:	48 89 e5             	mov    rbp,rsp
    147a:	89 f8                	mov    eax,edi
    147c:	88 45 fc             	mov    BYTE PTR [rbp-0x4],al
    147f:	0f be 45 fc          	movsx  eax,BYTE PTR [rbp-0x4]
    1483:	c1 e0 04             	shl    eax,0x4
    1486:	0f b6 d0             	movzx  edx,al
    1489:	0f b6 45 fc          	movzx  eax,BYTE PTR [rbp-0x4]
    148d:	c0 f8 04             	sar    al,0x4
    1490:	0f be c0             	movsx  eax,al
    1493:	01 d0                	add    eax,edx
    1495:	83 f8 33             	cmp    eax,0x33
    1498:	0f 94 c0             	sete   al
    149b:	5d                   	pop    rbp
    149c:	c3                   	ret    

000000000000149d <f1205907>:
    149d:	f3 0f 1e fa          	endbr64 
    14a1:	55                   	push   rbp
    14a2:	48 89 e5             	mov    rbp,rsp
    14a5:	89 f8                	mov    eax,edi
    14a7:	88 45 fc             	mov    BYTE PTR [rbp-0x4],al
    14aa:	0f be 45 fc          	movsx  eax,BYTE PTR [rbp-0x4]
    14ae:	c1 e0 04             	shl    eax,0x4
    14b1:	0f b6 d0             	movzx  edx,al
    14b4:	0f b6 45 fc          	movzx  eax,BYTE PTR [rbp-0x4]
    14b8:	c0 f8 04             	sar    al,0x4
    14bb:	0f be c0             	movsx  eax,al
    14be:	01 d0                	add    eax,edx
    14c0:	83 f8 43             	cmp    eax,0x43
    14c3:	0f 94 c0             	sete   al
    14c6:	5d                   	pop    rbp
    14c7:	c3                   	ret    

00000000000014c8 <f6037610>:
    14c8:	f3 0f 1e fa          	endbr64 
    14cc:	55                   	push   rbp
    14cd:	48 89 e5             	mov    rbp,rsp
    14d0:	89 f8                	mov    eax,edi
    14d2:	88 45 fc             	mov    BYTE PTR [rbp-0x4],al
    14d5:	0f be 45 fc          	movsx  eax,BYTE PTR [rbp-0x4]
    14d9:	c1 e0 04             	shl    eax,0x4
    14dc:	0f b6 d0             	movzx  edx,al
    14df:	0f b6 45 fc          	movzx  eax,BYTE PTR [rbp-0x4]
    14e3:	c0 f8 04             	sar    al,0x4
    14e6:	0f be c0             	movsx  eax,al
    14e9:	01 d0                	add    eax,edx
    14eb:	3d c6 00 00 00       	cmp    eax,0xc6
    14f0:	0f 94 c0             	sete   al
    14f3:	5d                   	pop    rbp
    14f4:	c3                   	ret    

00000000000014f5 <f9848350>:
    14f5:	f3 0f 1e fa          	endbr64 
    14f9:	55                   	push   rbp
    14fa:	48 89 e5             	mov    rbp,rsp
    14fd:	89 f8                	mov    eax,edi
    14ff:	88 45 fc             	mov    BYTE PTR [rbp-0x4],al
    1502:	0f be 45 fc          	movsx  eax,BYTE PTR [rbp-0x4]
    1506:	c1 e0 04             	shl    eax,0x4
    1509:	0f b6 d0             	movzx  edx,al
    150c:	0f b6 45 fc          	movzx  eax,BYTE PTR [rbp-0x4]
    1510:	c0 f8 04             	sar    al,0x4
    1513:	0f be c0             	movsx  eax,al
    1516:	01 d0                	add    eax,edx
    1518:	3d c6 00 00 00       	cmp    eax,0xc6
    151d:	0f 94 c0             	sete   al
    1520:	5d                   	pop    rbp
    1521:	c3                   	ret    

0000000000001522 <f6824915>:
    1522:	f3 0f 1e fa          	endbr64 
    1526:	55                   	push   rbp
    1527:	48 89 e5             	mov    rbp,rsp
    152a:	89 f8                	mov    eax,edi
    152c:	88 45 fc             	mov    BYTE PTR [rbp-0x4],al
    152f:	0f be 45 fc          	movsx  eax,BYTE PTR [rbp-0x4]
    1533:	c1 e0 04             	shl    eax,0x4
    1536:	0f b6 d0             	movzx  edx,al
    1539:	0f b6 45 fc          	movzx  eax,BYTE PTR [rbp-0x4]
    153d:	c0 f8 04             	sar    al,0x4
    1540:	0f be c0             	movsx  eax,al
    1543:	01 d0                	add    eax,edx
    1545:	3d 97 00 00 00       	cmp    eax,0x97
    154a:	0f 94 c0             	sete   al
    154d:	5d                   	pop    rbp
    154e:	c3                   	ret    

000000000000154f <f684565>:
    154f:	f3 0f 1e fa          	endbr64 
    1553:	55                   	push   rbp
    1554:	48 89 e5             	mov    rbp,rsp
    1557:	89 f8                	mov    eax,edi
    1559:	88 45 fc             	mov    BYTE PTR [rbp-0x4],al
    155c:	0f be 45 fc          	movsx  eax,BYTE PTR [rbp-0x4]
    1560:	c1 e0 04             	shl    eax,0x4
    1563:	0f b6 d0             	movzx  edx,al
    1566:	0f b6 45 fc          	movzx  eax,BYTE PTR [rbp-0x4]
    156a:	c0 f8 04             	sar    al,0x4
    156d:	0f be c0             	movsx  eax,al
    1570:	01 d0                	add    eax,edx
    1572:	3d f5 00 00 00       	cmp    eax,0xf5
    1577:	0f 94 c0             	sete   al
    157a:	5d                   	pop    rbp
    157b:	c3                   	ret    

000000000000157c <f92520>:
    157c:	f3 0f 1e fa          	endbr64 
    1580:	55                   	push   rbp
    1581:	48 89 e5             	mov    rbp,rsp
    1584:	89 f8                	mov    eax,edi
    1586:	88 45 fc             	mov    BYTE PTR [rbp-0x4],al
    1589:	0f be 45 fc          	movsx  eax,BYTE PTR [rbp-0x4]
    158d:	c1 e0 04             	shl    eax,0x4
    1590:	0f b6 d0             	movzx  edx,al
    1593:	0f b6 45 fc          	movzx  eax,BYTE PTR [rbp-0x4]
    1597:	c0 f8 04             	sar    al,0x4
    159a:	0f be c0             	movsx  eax,al
    159d:	01 d0                	add    eax,edx
    159f:	83 f8 47             	cmp    eax,0x47
    15a2:	0f 94 c0             	sete   al
    15a5:	5d                   	pop    rbp
    15a6:	c3                   	ret    

00000000000015a7 <f2033367>:
    15a7:	f3 0f 1e fa          	endbr64 
    15ab:	55                   	push   rbp
    15ac:	48 89 e5             	mov    rbp,rsp
    15af:	89 f8                	mov    eax,edi
    15b1:	88 45 fc             	mov    BYTE PTR [rbp-0x4],al
    15b4:	0f be 45 fc          	movsx  eax,BYTE PTR [rbp-0x4]
    15b8:	c1 e0 04             	shl    eax,0x4
    15bb:	0f b6 d0             	movzx  edx,al
    15be:	0f b6 45 fc          	movzx  eax,BYTE PTR [rbp-0x4]
    15c2:	c0 f8 04             	sar    al,0x4
    15c5:	0f be c0             	movsx  eax,al
    15c8:	01 d0                	add    eax,edx
    15ca:	3d 86 00 00 00       	cmp    eax,0x86
    15cf:	0f 94 c0             	sete   al
    15d2:	5d                   	pop    rbp
    15d3:	c3                   	ret    

00000000000015d4 <f554708>:
    15d4:	f3 0f 1e fa          	endbr64 
    15d8:	55                   	push   rbp
    15d9:	48 89 e5             	mov    rbp,rsp
    15dc:	89 f8                	mov    eax,edi
    15de:	88 45 fc             	mov    BYTE PTR [rbp-0x4],al
    15e1:	0f be 45 fc          	movsx  eax,BYTE PTR [rbp-0x4]
    15e5:	c1 e0 04             	shl    eax,0x4
    15e8:	0f b6 d0             	movzx  edx,al
    15eb:	0f b6 45 fc          	movzx  eax,BYTE PTR [rbp-0x4]
    15ef:	c0 f8 04             	sar    al,0x4
    15f2:	0f be c0             	movsx  eax,al
    15f5:	01 d0                	add    eax,edx
    15f7:	83 f8 13             	cmp    eax,0x13
    15fa:	0f 94 c0             	sete   al
    15fd:	5d                   	pop    rbp
    15fe:	c3                   	ret    

00000000000015ff <f5673323>:
    15ff:	f3 0f 1e fa          	endbr64 
    1603:	55                   	push   rbp
    1604:	48 89 e5             	mov    rbp,rsp
    1607:	89 f8                	mov    eax,edi
    1609:	88 45 fc             	mov    BYTE PTR [rbp-0x4],al
    160c:	0f be 45 fc          	movsx  eax,BYTE PTR [rbp-0x4]
    1610:	c1 e0 04             	shl    eax,0x4
    1613:	0f b6 d0             	movzx  edx,al
    1616:	0f b6 45 fc          	movzx  eax,BYTE PTR [rbp-0x4]
    161a:	c0 f8 04             	sar    al,0x4
    161d:	0f be c0             	movsx  eax,al
    1620:	01 d0                	add    eax,edx
    1622:	3d e6 00 00 00       	cmp    eax,0xe6
    1627:	0f 94 c0             	sete   al
    162a:	5d                   	pop    rbp
    162b:	c3                   	ret    

000000000000162c <f4231114>:
    162c:	f3 0f 1e fa          	endbr64 
    1630:	55                   	push   rbp
    1631:	48 89 e5             	mov    rbp,rsp
    1634:	89 f8                	mov    eax,edi
    1636:	88 45 fc             	mov    BYTE PTR [rbp-0x4],al
    1639:	0f be 45 fc          	movsx  eax,BYTE PTR [rbp-0x4]
    163d:	c1 e0 04             	shl    eax,0x4
    1640:	0f b6 d0             	movzx  edx,al
    1643:	0f b6 45 fc          	movzx  eax,BYTE PTR [rbp-0x4]
    1647:	c0 f8 04             	sar    al,0x4
    164a:	0f be c0             	movsx  eax,al
    164d:	01 d0                	add    eax,edx
    164f:	3d b6 00 00 00       	cmp    eax,0xb6
    1654:	0f 94 c0             	sete   al
    1657:	5d                   	pop    rbp
    1658:	c3                   	ret    

0000000000001659 <f7418636>:
    1659:	f3 0f 1e fa          	endbr64 
    165d:	55                   	push   rbp
    165e:	48 89 e5             	mov    rbp,rsp
    1661:	89 f8                	mov    eax,edi
    1663:	88 45 fc             	mov    BYTE PTR [rbp-0x4],al
    1666:	0f be 45 fc          	movsx  eax,BYTE PTR [rbp-0x4]
    166a:	c1 e0 04             	shl    eax,0x4
    166d:	0f b6 d0             	movzx  edx,al
    1670:	0f b6 45 fc          	movzx  eax,BYTE PTR [rbp-0x4]
    1674:	c0 f8 04             	sar    al,0x4
    1677:	0f be c0             	movsx  eax,al
    167a:	01 d0                	add    eax,edx
    167c:	83 f8 13             	cmp    eax,0x13
    167f:	0f 94 c0             	sete   al
    1682:	5d                   	pop    rbp
    1683:	c3                   	ret    

0000000000001684 <f1853358>:
    1684:	f3 0f 1e fa          	endbr64 
    1688:	55                   	push   rbp
    1689:	48 89 e5             	mov    rbp,rsp
    168c:	89 f8                	mov    eax,edi
    168e:	88 45 fc             	mov    BYTE PTR [rbp-0x4],al
    1691:	0f be 45 fc          	movsx  eax,BYTE PTR [rbp-0x4]
    1695:	c1 e0 04             	shl    eax,0x4
    1698:	0f b6 d0             	movzx  edx,al
    169b:	0f b6 45 fc          	movzx  eax,BYTE PTR [rbp-0x4]
    169f:	c0 f8 04             	sar    al,0x4
    16a2:	0f be c0             	movsx  eax,al
    16a5:	01 d0                	add    eax,edx
    16a7:	3d e6 00 00 00       	cmp    eax,0xe6
    16ac:	0f 94 c0             	sete   al
    16af:	5d                   	pop    rbp
    16b0:	c3                   	ret    

00000000000016b1 <f1991208>:
    16b1:	f3 0f 1e fa          	endbr64 
    16b5:	55                   	push   rbp
    16b6:	48 89 e5             	mov    rbp,rsp
    16b9:	89 f8                	mov    eax,edi
    16bb:	88 45 fc             	mov    BYTE PTR [rbp-0x4],al
    16be:	0f be 45 fc          	movsx  eax,BYTE PTR [rbp-0x4]
    16c2:	c1 e0 04             	shl    eax,0x4
    16c5:	0f b6 d0             	movzx  edx,al
    16c8:	0f b6 45 fc          	movzx  eax,BYTE PTR [rbp-0x4]
    16cc:	c0 f8 04             	sar    al,0x4
    16cf:	0f be c0             	movsx  eax,al
    16d2:	01 d0                	add    eax,edx
    16d4:	3d 93 00 00 00       	cmp    eax,0x93
    16d9:	0f 94 c0             	sete   al
    16dc:	5d                   	pop    rbp
    16dd:	c3                   	ret    

00000000000016de <f6976528>:
    16de:	f3 0f 1e fa          	endbr64 
    16e2:	55                   	push   rbp
    16e3:	48 89 e5             	mov    rbp,rsp
    16e6:	89 f8                	mov    eax,edi
    16e8:	88 45 fc             	mov    BYTE PTR [rbp-0x4],al
    16eb:	0f be 45 fc          	movsx  eax,BYTE PTR [rbp-0x4]
    16ef:	c1 e0 04             	shl    eax,0x4
    16f2:	0f b6 d0             	movzx  edx,al
    16f5:	0f b6 45 fc          	movzx  eax,BYTE PTR [rbp-0x4]
    16f9:	c0 f8 04             	sar    al,0x4
    16fc:	0f be c0             	movsx  eax,al
    16ff:	01 d0                	add    eax,edx
    1701:	3d f5 00 00 00       	cmp    eax,0xf5
    1706:	0f 94 c0             	sete   al
    1709:	5d                   	pop    rbp
    170a:	c3                   	ret    

000000000000170b <f3698419>:
    170b:	f3 0f 1e fa          	endbr64 
    170f:	55                   	push   rbp
    1710:	48 89 e5             	mov    rbp,rsp
    1713:	89 f8                	mov    eax,edi
    1715:	88 45 fc             	mov    BYTE PTR [rbp-0x4],al
    1718:	0f be 45 fc          	movsx  eax,BYTE PTR [rbp-0x4]
    171c:	c1 e0 04             	shl    eax,0x4
    171f:	0f b6 d0             	movzx  edx,al
    1722:	0f b6 45 fc          	movzx  eax,BYTE PTR [rbp-0x4]
    1726:	c0 f8 04             	sar    al,0x4
    1729:	0f be c0             	movsx  eax,al
    172c:	01 d0                	add    eax,edx
    172e:	83 f8 47             	cmp    eax,0x47
    1731:	0f 94 c0             	sete   al
    1734:	5d                   	pop    rbp
    1735:	c3                   	ret    

0000000000001736 <f2566491>:
    1736:	f3 0f 1e fa          	endbr64 
    173a:	55                   	push   rbp
    173b:	48 89 e5             	mov    rbp,rsp
    173e:	89 f8                	mov    eax,edi
    1740:	88 45 fc             	mov    BYTE PTR [rbp-0x4],al
    1743:	0f be 45 fc          	movsx  eax,BYTE PTR [rbp-0x4]
    1747:	c1 e0 04             	shl    eax,0x4
    174a:	0f b6 d0             	movzx  edx,al
    174d:	0f b6 45 fc          	movzx  eax,BYTE PTR [rbp-0x4]
    1751:	c0 f8 04             	sar    al,0x4
    1754:	0f be c0             	movsx  eax,al
    1757:	01 d0                	add    eax,edx
    1759:	3d 86 00 00 00       	cmp    eax,0x86
    175e:	0f 94 c0             	sete   al
    1761:	5d                   	pop    rbp
    1762:	c3                   	ret    

0000000000001763 <f7994952>:
    1763:	f3 0f 1e fa          	endbr64 
    1767:	55                   	push   rbp
    1768:	48 89 e5             	mov    rbp,rsp
    176b:	89 f8                	mov    eax,edi
    176d:	88 45 fc             	mov    BYTE PTR [rbp-0x4],al
    1770:	0f be 45 fc          	movsx  eax,BYTE PTR [rbp-0x4]
    1774:	c1 e0 04             	shl    eax,0x4
    1777:	0f b6 d0             	movzx  edx,al
    177a:	0f b6 45 fc          	movzx  eax,BYTE PTR [rbp-0x4]
    177e:	c0 f8 04             	sar    al,0x4
    1781:	0f be c0             	movsx  eax,al
    1784:	01 d0                	add    eax,edx
    1786:	83 f8 43             	cmp    eax,0x43
    1789:	0f 94 c0             	sete   al
    178c:	5d                   	pop    rbp
    178d:	c3                   	ret    

000000000000178e <f5140713>:
    178e:	f3 0f 1e fa          	endbr64 
    1792:	55                   	push   rbp
    1793:	48 89 e5             	mov    rbp,rsp
    1796:	89 f8                	mov    eax,edi
    1798:	88 45 fc             	mov    BYTE PTR [rbp-0x4],al
    179b:	0f be 45 fc          	movsx  eax,BYTE PTR [rbp-0x4]
    179f:	c1 e0 04             	shl    eax,0x4
    17a2:	0f b6 d0             	movzx  edx,al
    17a5:	0f b6 45 fc          	movzx  eax,BYTE PTR [rbp-0x4]
    17a9:	c0 f8 04             	sar    al,0x4
    17ac:	0f be c0             	movsx  eax,al
    17af:	01 d0                	add    eax,edx
    17b1:	83 f8 47             	cmp    eax,0x47
    17b4:	0f 94 c0             	sete   al
    17b7:	5d                   	pop    rbp
    17b8:	c3                   	ret    

00000000000017b9 <f88780>:
    17b9:	f3 0f 1e fa          	endbr64 
    17bd:	55                   	push   rbp
    17be:	48 89 e5             	mov    rbp,rsp
    17c1:	89 f8                	mov    eax,edi
    17c3:	88 45 fc             	mov    BYTE PTR [rbp-0x4],al
    17c6:	0f be 45 fc          	movsx  eax,BYTE PTR [rbp-0x4]
    17ca:	c1 e0 04             	shl    eax,0x4
    17cd:	0f b6 d0             	movzx  edx,al
    17d0:	0f b6 45 fc          	movzx  eax,BYTE PTR [rbp-0x4]
    17d4:	c0 f8 04             	sar    al,0x4
    17d7:	0f be c0             	movsx  eax,al
    17da:	01 d0                	add    eax,edx
    17dc:	3d f5 00 00 00       	cmp    eax,0xf5
    17e1:	0f 94 c0             	sete   al
    17e4:	5d                   	pop    rbp
    17e5:	c3                   	ret    

00000000000017e6 <f2161814>:
    17e6:	f3 0f 1e fa          	endbr64 
    17ea:	55                   	push   rbp
    17eb:	48 89 e5             	mov    rbp,rsp
    17ee:	89 f8                	mov    eax,edi
    17f0:	88 45 fc             	mov    BYTE PTR [rbp-0x4],al
    17f3:	0f be 45 fc          	movsx  eax,BYTE PTR [rbp-0x4]
    17f7:	c1 e0 04             	shl    eax,0x4
    17fa:	0f b6 d0             	movzx  edx,al
    17fd:	0f b6 45 fc          	movzx  eax,BYTE PTR [rbp-0x4]
    1801:	c0 f8 04             	sar    al,0x4
    1804:	0f be c0             	movsx  eax,al
    1807:	01 d0                	add    eax,edx
    1809:	3d 97 00 00 00       	cmp    eax,0x97
    180e:	0f 94 c0             	sete   al
    1811:	5d                   	pop    rbp
    1812:	c3                   	ret    

0000000000001813 <f9633522>:
    1813:	f3 0f 1e fa          	endbr64 
    1817:	55                   	push   rbp
    1818:	48 89 e5             	mov    rbp,rsp
    181b:	89 f8                	mov    eax,edi
    181d:	88 45 fc             	mov    BYTE PTR [rbp-0x4],al
    1820:	0f be 45 fc          	movsx  eax,BYTE PTR [rbp-0x4]
    1824:	c1 e0 04             	shl    eax,0x4
    1827:	0f b6 d0             	movzx  edx,al
    182a:	0f b6 45 fc          	movzx  eax,BYTE PTR [rbp-0x4]
    182e:	c0 f8 04             	sar    al,0x4
    1831:	0f be c0             	movsx  eax,al
    1834:	01 d0                	add    eax,edx
    1836:	83 f8 03             	cmp    eax,0x3
    1839:	0f 94 c0             	sete   al
    183c:	5d                   	pop    rbp
    183d:	c3                   	ret    

000000000000183e <f4283702>:
    183e:	f3 0f 1e fa          	endbr64 
    1842:	55                   	push   rbp
    1843:	48 89 e5             	mov    rbp,rsp
    1846:	89 f8                	mov    eax,edi
    1848:	88 45 fc             	mov    BYTE PTR [rbp-0x4],al
    184b:	0f be 45 fc          	movsx  eax,BYTE PTR [rbp-0x4]
    184f:	c1 e0 04             	shl    eax,0x4
    1852:	0f b6 d0             	movzx  edx,al
    1855:	0f b6 45 fc          	movzx  eax,BYTE PTR [rbp-0x4]
    1859:	c0 f8 04             	sar    al,0x4
    185c:	0f be c0             	movsx  eax,al
    185f:	01 d0                	add    eax,edx
    1861:	83 f8 57             	cmp    eax,0x57
    1864:	0f 94 c0             	sete   al
    1867:	5d                   	pop    rbp
    1868:	c3                   	ret    

0000000000001869 <f4865077>:
    1869:	f3 0f 1e fa          	endbr64 
    186d:	55                   	push   rbp
    186e:	48 89 e5             	mov    rbp,rsp
    1871:	89 f8                	mov    eax,edi
    1873:	88 45 fc             	mov    BYTE PTR [rbp-0x4],al
    1876:	0f be 45 fc          	movsx  eax,BYTE PTR [rbp-0x4]
    187a:	c1 e0 04             	shl    eax,0x4
    187d:	0f b6 d0             	movzx  edx,al
    1880:	0f b6 45 fc          	movzx  eax,BYTE PTR [rbp-0x4]
    1884:	c0 f8 04             	sar    al,0x4
    1887:	0f be c0             	movsx  eax,al
    188a:	01 d0                	add    eax,edx
    188c:	3d f5 00 00 00       	cmp    eax,0xf5
    1891:	0f 94 c0             	sete   al
    1894:	5d                   	pop    rbp
    1895:	c3                   	ret    

0000000000001896 <f5077469>:
    1896:	f3 0f 1e fa          	endbr64 
    189a:	55                   	push   rbp
    189b:	48 89 e5             	mov    rbp,rsp
    189e:	89 f8                	mov    eax,edi
    18a0:	88 45 fc             	mov    BYTE PTR [rbp-0x4],al
    18a3:	0f be 45 fc          	movsx  eax,BYTE PTR [rbp-0x4]
    18a7:	c1 e0 04             	shl    eax,0x4
    18aa:	0f b6 d0             	movzx  edx,al
    18ad:	0f b6 45 fc          	movzx  eax,BYTE PTR [rbp-0x4]
    18b1:	c0 f8 04             	sar    al,0x4
    18b4:	0f be c0             	movsx  eax,al
    18b7:	01 d0                	add    eax,edx
    18b9:	83 f8 36             	cmp    eax,0x36
    18bc:	0f 94 c0             	sete   al
    18bf:	5d                   	pop    rbp
    18c0:	c3                   	ret    

00000000000018c1 <f8942470>:
    18c1:	f3 0f 1e fa          	endbr64 
    18c5:	55                   	push   rbp
    18c6:	48 89 e5             	mov    rbp,rsp
    18c9:	89 f8                	mov    eax,edi
    18cb:	88 45 fc             	mov    BYTE PTR [rbp-0x4],al
    18ce:	0f be 45 fc          	movsx  eax,BYTE PTR [rbp-0x4]
    18d2:	c1 e0 04             	shl    eax,0x4
    18d5:	0f b6 d0             	movzx  edx,al
    18d8:	0f b6 45 fc          	movzx  eax,BYTE PTR [rbp-0x4]
    18dc:	c0 f8 04             	sar    al,0x4
    18df:	0f be c0             	movsx  eax,al
    18e2:	01 d0                	add    eax,edx
    18e4:	83 f8 43             	cmp    eax,0x43
    18e7:	0f 94 c0             	sete   al
    18ea:	5d                   	pop    rbp
    18eb:	c3                   	ret    

00000000000018ec <f69599>:
    18ec:	f3 0f 1e fa          	endbr64 
    18f0:	55                   	push   rbp
    18f1:	48 89 e5             	mov    rbp,rsp
    18f4:	89 f8                	mov    eax,edi
    18f6:	88 45 fc             	mov    BYTE PTR [rbp-0x4],al
    18f9:	0f be 45 fc          	movsx  eax,BYTE PTR [rbp-0x4]
    18fd:	c1 e0 04             	shl    eax,0x4
    1900:	0f b6 d0             	movzx  edx,al
    1903:	0f b6 45 fc          	movzx  eax,BYTE PTR [rbp-0x4]
    1907:	c0 f8 04             	sar    al,0x4
    190a:	0f be c0             	movsx  eax,al
    190d:	01 d0                	add    eax,edx
    190f:	3d e6 00 00 00       	cmp    eax,0xe6
    1914:	0f 94 c0             	sete   al
    1917:	5d                   	pop    rbp
    1918:	c3                   	ret    

0000000000001919 <f306115>:
    1919:	f3 0f 1e fa          	endbr64 
    191d:	55                   	push   rbp
    191e:	48 89 e5             	mov    rbp,rsp
    1921:	89 f8                	mov    eax,edi
    1923:	88 45 fc             	mov    BYTE PTR [rbp-0x4],al
    1926:	0f be 45 fc          	movsx  eax,BYTE PTR [rbp-0x4]
    192a:	c1 e0 04             	shl    eax,0x4
    192d:	0f b6 d0             	movzx  edx,al
    1930:	0f b6 45 fc          	movzx  eax,BYTE PTR [rbp-0x4]
    1934:	c0 f8 04             	sar    al,0x4
    1937:	0f be c0             	movsx  eax,al
    193a:	01 d0                	add    eax,edx
    193c:	3d f5 00 00 00       	cmp    eax,0xf5
    1941:	0f 94 c0             	sete   al
    1944:	5d                   	pop    rbp
    1945:	c3                   	ret    

0000000000001946 <f5819085>:
    1946:	f3 0f 1e fa          	endbr64 
    194a:	55                   	push   rbp
    194b:	48 89 e5             	mov    rbp,rsp
    194e:	89 f8                	mov    eax,edi
    1950:	88 45 fc             	mov    BYTE PTR [rbp-0x4],al
    1953:	0f be 45 fc          	movsx  eax,BYTE PTR [rbp-0x4]
    1957:	c1 e0 04             	shl    eax,0x4
    195a:	0f b6 d0             	movzx  edx,al
    195d:	0f b6 45 fc          	movzx  eax,BYTE PTR [rbp-0x4]
    1961:	c0 f8 04             	sar    al,0x4
    1964:	0f be c0             	movsx  eax,al
    1967:	01 d0                	add    eax,edx
    1969:	83 f8 47             	cmp    eax,0x47
    196c:	0f 94 c0             	sete   al
    196f:	5d                   	pop    rbp
    1970:	c3                   	ret    

0000000000001971 <f2051229>:
    1971:	f3 0f 1e fa          	endbr64 
    1975:	55                   	push   rbp
    1976:	48 89 e5             	mov    rbp,rsp
    1979:	89 f8                	mov    eax,edi
    197b:	88 45 fc             	mov    BYTE PTR [rbp-0x4],al
    197e:	0f be 45 fc          	movsx  eax,BYTE PTR [rbp-0x4]
    1982:	c1 e0 04             	shl    eax,0x4
    1985:	0f b6 d0             	movzx  edx,al
    1988:	0f b6 45 fc          	movzx  eax,BYTE PTR [rbp-0x4]
    198c:	c0 f8 04             	sar    al,0x4
    198f:	0f be c0             	movsx  eax,al
    1992:	01 d0                	add    eax,edx
    1994:	83 f8 27             	cmp    eax,0x27
    1997:	0f 94 c0             	sete   al
    199a:	5d                   	pop    rbp
    199b:	c3                   	ret    

000000000000199c <f8121604>:
    199c:	f3 0f 1e fa          	endbr64 
    19a0:	55                   	push   rbp
    19a1:	48 89 e5             	mov    rbp,rsp
    19a4:	89 f8                	mov    eax,edi
    19a6:	88 45 fc             	mov    BYTE PTR [rbp-0x4],al
    19a9:	0f be 45 fc          	movsx  eax,BYTE PTR [rbp-0x4]
    19ad:	c1 e0 04             	shl    eax,0x4
    19b0:	0f b6 d0             	movzx  edx,al
    19b3:	0f b6 45 fc          	movzx  eax,BYTE PTR [rbp-0x4]
    19b7:	c0 f8 04             	sar    al,0x4
    19ba:	0f be c0             	movsx  eax,al
    19bd:	01 d0                	add    eax,edx
    19bf:	3d 97 00 00 00       	cmp    eax,0x97
    19c4:	0f 94 c0             	sete   al
    19c7:	5d                   	pop    rbp
    19c8:	c3                   	ret    

00000000000019c9 <f5595266>:
    19c9:	f3 0f 1e fa          	endbr64 
    19cd:	55                   	push   rbp
    19ce:	48 89 e5             	mov    rbp,rsp
    19d1:	89 f8                	mov    eax,edi
    19d3:	88 45 fc             	mov    BYTE PTR [rbp-0x4],al
    19d6:	0f be 45 fc          	movsx  eax,BYTE PTR [rbp-0x4]
    19da:	c1 e0 04             	shl    eax,0x4
    19dd:	0f b6 d0             	movzx  edx,al
    19e0:	0f b6 45 fc          	movzx  eax,BYTE PTR [rbp-0x4]
    19e4:	c0 f8 04             	sar    al,0x4
    19e7:	0f be c0             	movsx  eax,al
    19ea:	01 d0                	add    eax,edx
    19ec:	3d f5 00 00 00       	cmp    eax,0xf5
    19f1:	0f 94 c0             	sete   al
    19f4:	5d                   	pop    rbp
    19f5:	c3                   	ret    

00000000000019f6 <f3404320>:
    19f6:	f3 0f 1e fa          	endbr64 
    19fa:	55                   	push   rbp
    19fb:	48 89 e5             	mov    rbp,rsp
    19fe:	89 f8                	mov    eax,edi
    1a00:	88 45 fc             	mov    BYTE PTR [rbp-0x4],al
    1a03:	0f be 45 fc          	movsx  eax,BYTE PTR [rbp-0x4]
    1a07:	c1 e0 04             	shl    eax,0x4
    1a0a:	0f b6 d0             	movzx  edx,al
    1a0d:	0f b6 45 fc          	movzx  eax,BYTE PTR [rbp-0x4]
    1a11:	c0 f8 04             	sar    al,0x4
    1a14:	0f be c0             	movsx  eax,al
    1a17:	01 d0                	add    eax,edx
    1a19:	83 f8 47             	cmp    eax,0x47
    1a1c:	0f 94 c0             	sete   al
    1a1f:	5d                   	pop    rbp
    1a20:	c3                   	ret    

0000000000001a21 <f4356041>:
    1a21:	f3 0f 1e fa          	endbr64 
    1a25:	55                   	push   rbp
    1a26:	48 89 e5             	mov    rbp,rsp
    1a29:	89 f8                	mov    eax,edi
    1a2b:	88 45 fc             	mov    BYTE PTR [rbp-0x4],al
    1a2e:	0f be 45 fc          	movsx  eax,BYTE PTR [rbp-0x4]
    1a32:	c1 e0 04             	shl    eax,0x4
    1a35:	0f b6 d0             	movzx  edx,al
    1a38:	0f b6 45 fc          	movzx  eax,BYTE PTR [rbp-0x4]
    1a3c:	c0 f8 04             	sar    al,0x4
    1a3f:	0f be c0             	movsx  eax,al
    1a42:	01 d0                	add    eax,edx
    1a44:	3d 86 00 00 00       	cmp    eax,0x86
    1a49:	0f 94 c0             	sete   al
    1a4c:	5d                   	pop    rbp
    1a4d:	c3                   	ret    

0000000000001a4e <f3676482>:
    1a4e:	f3 0f 1e fa          	endbr64 
    1a52:	55                   	push   rbp
    1a53:	48 89 e5             	mov    rbp,rsp
    1a56:	89 f8                	mov    eax,edi
    1a58:	88 45 fc             	mov    BYTE PTR [rbp-0x4],al
    1a5b:	0f be 45 fc          	movsx  eax,BYTE PTR [rbp-0x4]
    1a5f:	c1 e0 04             	shl    eax,0x4
    1a62:	0f b6 d0             	movzx  edx,al
    1a65:	0f b6 45 fc          	movzx  eax,BYTE PTR [rbp-0x4]
    1a69:	c0 f8 04             	sar    al,0x4
    1a6c:	0f be c0             	movsx  eax,al
    1a6f:	01 d0                	add    eax,edx
    1a71:	83 f8 13             	cmp    eax,0x13
    1a74:	0f 94 c0             	sete   al
    1a77:	5d                   	pop    rbp
    1a78:	c3                   	ret    

0000000000001a79 <f285854>:
    1a79:	f3 0f 1e fa          	endbr64 
    1a7d:	55                   	push   rbp
    1a7e:	48 89 e5             	mov    rbp,rsp
    1a81:	89 f8                	mov    eax,edi
    1a83:	88 45 fc             	mov    BYTE PTR [rbp-0x4],al
    1a86:	0f be 45 fc          	movsx  eax,BYTE PTR [rbp-0x4]
    1a8a:	c1 e0 04             	shl    eax,0x4
    1a8d:	0f b6 d0             	movzx  edx,al
    1a90:	0f b6 45 fc          	movzx  eax,BYTE PTR [rbp-0x4]
    1a94:	c0 f8 04             	sar    al,0x4
    1a97:	0f be c0             	movsx  eax,al
    1a9a:	01 d0                	add    eax,edx
    1a9c:	83 f8 53             	cmp    eax,0x53
    1a9f:	0f 94 c0             	sete   al
    1aa2:	5d                   	pop    rbp
    1aa3:	c3                   	ret    

0000000000001aa4 <f4534378>:
    1aa4:	f3 0f 1e fa          	endbr64 
    1aa8:	55                   	push   rbp
    1aa9:	48 89 e5             	mov    rbp,rsp
    1aac:	89 f8                	mov    eax,edi
    1aae:	88 45 fc             	mov    BYTE PTR [rbp-0x4],al
    1ab1:	0f be 45 fc          	movsx  eax,BYTE PTR [rbp-0x4]
    1ab5:	c1 e0 04             	shl    eax,0x4
    1ab8:	0f b6 d0             	movzx  edx,al
    1abb:	0f b6 45 fc          	movzx  eax,BYTE PTR [rbp-0x4]
    1abf:	c0 f8 04             	sar    al,0x4
    1ac2:	0f be c0             	movsx  eax,al
    1ac5:	01 d0                	add    eax,edx
    1ac7:	3d f5 00 00 00       	cmp    eax,0xf5
    1acc:	0f 94 c0             	sete   al
    1acf:	5d                   	pop    rbp
    1ad0:	c3                   	ret    

0000000000001ad1 <f5431748>:
    1ad1:	f3 0f 1e fa          	endbr64 
    1ad5:	55                   	push   rbp
    1ad6:	48 89 e5             	mov    rbp,rsp
    1ad9:	89 f8                	mov    eax,edi
    1adb:	88 45 fc             	mov    BYTE PTR [rbp-0x4],al
    1ade:	0f be 45 fc          	movsx  eax,BYTE PTR [rbp-0x4]
    1ae2:	c1 e0 04             	shl    eax,0x4
    1ae5:	0f b6 d0             	movzx  edx,al
    1ae8:	0f b6 45 fc          	movzx  eax,BYTE PTR [rbp-0x4]
    1aec:	c0 f8 04             	sar    al,0x4
    1aef:	0f be c0             	movsx  eax,al
    1af2:	01 d0                	add    eax,edx
    1af4:	3d d6 00 00 00       	cmp    eax,0xd6
    1af9:	0f 94 c0             	sete   al
    1afc:	5d                   	pop    rbp
    1afd:	c3                   	ret    

0000000000001afe <f3034080>:
    1afe:	f3 0f 1e fa          	endbr64 
    1b02:	55                   	push   rbp
    1b03:	48 89 e5             	mov    rbp,rsp
    1b06:	89 f8                	mov    eax,edi
    1b08:	88 45 fc             	mov    BYTE PTR [rbp-0x4],al
    1b0b:	0f be 45 fc          	movsx  eax,BYTE PTR [rbp-0x4]
    1b0f:	c1 e0 04             	shl    eax,0x4
    1b12:	0f b6 d0             	movzx  edx,al
    1b15:	0f b6 45 fc          	movzx  eax,BYTE PTR [rbp-0x4]
    1b19:	c0 f8 04             	sar    al,0x4
    1b1c:	0f be c0             	movsx  eax,al
    1b1f:	01 d0                	add    eax,edx
    1b21:	83 f8 43             	cmp    eax,0x43
    1b24:	0f 94 c0             	sete   al
    1b27:	5d                   	pop    rbp
    1b28:	c3                   	ret    

0000000000001b29 <f6793597>:
    1b29:	f3 0f 1e fa          	endbr64 
    1b2d:	55                   	push   rbp
    1b2e:	48 89 e5             	mov    rbp,rsp
    1b31:	89 f8                	mov    eax,edi
    1b33:	88 45 fc             	mov    BYTE PTR [rbp-0x4],al
    1b36:	0f be 45 fc          	movsx  eax,BYTE PTR [rbp-0x4]
    1b3a:	c1 e0 04             	shl    eax,0x4
    1b3d:	0f b6 d0             	movzx  edx,al
    1b40:	0f b6 45 fc          	movzx  eax,BYTE PTR [rbp-0x4]
    1b44:	c0 f8 04             	sar    al,0x4
    1b47:	0f be c0             	movsx  eax,al
    1b4a:	01 d0                	add    eax,edx
    1b4c:	3d e6 00 00 00       	cmp    eax,0xe6
    1b51:	0f 94 c0             	sete   al
    1b54:	5d                   	pop    rbp
    1b55:	c3                   	ret    

0000000000001b56 <f2069805>:
    1b56:	f3 0f 1e fa          	endbr64 
    1b5a:	55                   	push   rbp
    1b5b:	48 89 e5             	mov    rbp,rsp
    1b5e:	89 f8                	mov    eax,edi
    1b60:	88 45 fc             	mov    BYTE PTR [rbp-0x4],al
    1b63:	0f be 45 fc          	movsx  eax,BYTE PTR [rbp-0x4]
    1b67:	c1 e0 04             	shl    eax,0x4
    1b6a:	0f b6 d0             	movzx  edx,al
    1b6d:	0f b6 45 fc          	movzx  eax,BYTE PTR [rbp-0x4]
    1b71:	c0 f8 04             	sar    al,0x4
    1b74:	0f be c0             	movsx  eax,al
    1b77:	01 d0                	add    eax,edx
    1b79:	83 f8 57             	cmp    eax,0x57
    1b7c:	0f 94 c0             	sete   al
    1b7f:	5d                   	pop    rbp
    1b80:	c3                   	ret    

0000000000001b81 <f4427480>:
    1b81:	f3 0f 1e fa          	endbr64 
    1b85:	55                   	push   rbp
    1b86:	48 89 e5             	mov    rbp,rsp
    1b89:	89 f8                	mov    eax,edi
    1b8b:	88 45 fc             	mov    BYTE PTR [rbp-0x4],al
    1b8e:	0f be 45 fc          	movsx  eax,BYTE PTR [rbp-0x4]
    1b92:	c1 e0 04             	shl    eax,0x4
    1b95:	0f b6 d0             	movzx  edx,al
    1b98:	0f b6 45 fc          	movzx  eax,BYTE PTR [rbp-0x4]
    1b9c:	c0 f8 04             	sar    al,0x4
    1b9f:	0f be c0             	movsx  eax,al
    1ba2:	01 d0                	add    eax,edx
    1ba4:	83 f8 43             	cmp    eax,0x43
    1ba7:	0f 94 c0             	sete   al
    1baa:	5d                   	pop    rbp
    1bab:	c3                   	ret    

0000000000001bac <f6745606>:
    1bac:	f3 0f 1e fa          	endbr64 
    1bb0:	55                   	push   rbp
    1bb1:	48 89 e5             	mov    rbp,rsp
    1bb4:	89 f8                	mov    eax,edi
    1bb6:	88 45 fc             	mov    BYTE PTR [rbp-0x4],al
    1bb9:	0f be 45 fc          	movsx  eax,BYTE PTR [rbp-0x4]
    1bbd:	c1 e0 04             	shl    eax,0x4
    1bc0:	0f b6 d0             	movzx  edx,al
    1bc3:	0f b6 45 fc          	movzx  eax,BYTE PTR [rbp-0x4]
    1bc7:	c0 f8 04             	sar    al,0x4
    1bca:	0f be c0             	movsx  eax,al
    1bcd:	01 d0                	add    eax,edx
    1bcf:	3d c6 00 00 00       	cmp    eax,0xc6
    1bd4:	0f 94 c0             	sete   al
    1bd7:	5d                   	pop    rbp
    1bd8:	c3                   	ret    

0000000000001bd9 <f8019149>:
    1bd9:	f3 0f 1e fa          	endbr64 
    1bdd:	55                   	push   rbp
    1bde:	48 89 e5             	mov    rbp,rsp
    1be1:	89 f8                	mov    eax,edi
    1be3:	88 45 fc             	mov    BYTE PTR [rbp-0x4],al
    1be6:	0f be 45 fc          	movsx  eax,BYTE PTR [rbp-0x4]
    1bea:	c1 e0 04             	shl    eax,0x4
    1bed:	0f b6 d0             	movzx  edx,al
    1bf0:	0f b6 45 fc          	movzx  eax,BYTE PTR [rbp-0x4]
    1bf4:	c0 f8 04             	sar    al,0x4
    1bf7:	0f be c0             	movsx  eax,al
    1bfa:	01 d0                	add    eax,edx
    1bfc:	3d c6 00 00 00       	cmp    eax,0xc6
    1c01:	0f 94 c0             	sete   al
    1c04:	5d                   	pop    rbp
    1c05:	c3                   	ret    

0000000000001c06 <f5221954>:
    1c06:	f3 0f 1e fa          	endbr64 
    1c0a:	55                   	push   rbp
    1c0b:	48 89 e5             	mov    rbp,rsp
    1c0e:	89 f8                	mov    eax,edi
    1c10:	88 45 fc             	mov    BYTE PTR [rbp-0x4],al
    1c13:	0f be 45 fc          	movsx  eax,BYTE PTR [rbp-0x4]
    1c17:	c1 e0 04             	shl    eax,0x4
    1c1a:	0f b6 d0             	movzx  edx,al
    1c1d:	0f b6 45 fc          	movzx  eax,BYTE PTR [rbp-0x4]
    1c21:	c0 f8 04             	sar    al,0x4
    1c24:	0f be c0             	movsx  eax,al
    1c27:	01 d0                	add    eax,edx
    1c29:	3d 97 00 00 00       	cmp    eax,0x97
    1c2e:	0f 94 c0             	sete   al
    1c31:	5d                   	pop    rbp
    1c32:	c3                   	ret    

0000000000001c33 <f6822097>:
    1c33:	f3 0f 1e fa          	endbr64 
    1c37:	55                   	push   rbp
    1c38:	48 89 e5             	mov    rbp,rsp
    1c3b:	89 f8                	mov    eax,edi
    1c3d:	88 45 fc             	mov    BYTE PTR [rbp-0x4],al
    1c40:	0f be 45 fc          	movsx  eax,BYTE PTR [rbp-0x4]
    1c44:	c1 e0 04             	shl    eax,0x4
    1c47:	0f b6 d0             	movzx  edx,al
    1c4a:	0f b6 45 fc          	movzx  eax,BYTE PTR [rbp-0x4]
    1c4e:	c0 f8 04             	sar    al,0x4
    1c51:	0f be c0             	movsx  eax,al
    1c54:	01 d0                	add    eax,edx
    1c56:	3d f3 00 00 00       	cmp    eax,0xf3
    1c5b:	0f 94 c0             	sete   al
    1c5e:	5d                   	pop    rbp
    1c5f:	c3                   	ret    

0000000000001c60 <f9144894>:
    1c60:	f3 0f 1e fa          	endbr64 
    1c64:	55                   	push   rbp
    1c65:	48 89 e5             	mov    rbp,rsp
    1c68:	89 f8                	mov    eax,edi
    1c6a:	88 45 fc             	mov    BYTE PTR [rbp-0x4],al
    1c6d:	0f be 45 fc          	movsx  eax,BYTE PTR [rbp-0x4]
    1c71:	c1 e0 04             	shl    eax,0x4
    1c74:	0f b6 d0             	movzx  edx,al
    1c77:	0f b6 45 fc          	movzx  eax,BYTE PTR [rbp-0x4]
    1c7b:	c0 f8 04             	sar    al,0x4
    1c7e:	0f be c0             	movsx  eax,al
    1c81:	01 d0                	add    eax,edx
    1c83:	3d f3 00 00 00       	cmp    eax,0xf3
    1c88:	0f 94 c0             	sete   al
    1c8b:	5d                   	pop    rbp
    1c8c:	c3                   	ret    

0000000000001c8d <f9662054>:
    1c8d:	f3 0f 1e fa          	endbr64 
    1c91:	55                   	push   rbp
    1c92:	48 89 e5             	mov    rbp,rsp
    1c95:	89 f8                	mov    eax,edi
    1c97:	88 45 fc             	mov    BYTE PTR [rbp-0x4],al
    1c9a:	0f be 45 fc          	movsx  eax,BYTE PTR [rbp-0x4]
    1c9e:	c1 e0 04             	shl    eax,0x4
    1ca1:	0f b6 d0             	movzx  edx,al
    1ca4:	0f b6 45 fc          	movzx  eax,BYTE PTR [rbp-0x4]
    1ca8:	c0 f8 04             	sar    al,0x4
    1cab:	0f be c0             	movsx  eax,al
    1cae:	01 d0                	add    eax,edx
    1cb0:	3d f3 00 00 00       	cmp    eax,0xf3
    1cb5:	0f 94 c0             	sete   al
    1cb8:	5d                   	pop    rbp
    1cb9:	c3                   	ret    

0000000000001cba <f3474527>:
    1cba:	f3 0f 1e fa          	endbr64 
    1cbe:	55                   	push   rbp
    1cbf:	48 89 e5             	mov    rbp,rsp
    1cc2:	89 f8                	mov    eax,edi
    1cc4:	88 45 fc             	mov    BYTE PTR [rbp-0x4],al
    1cc7:	0f be 45 fc          	movsx  eax,BYTE PTR [rbp-0x4]
    1ccb:	c1 e0 04             	shl    eax,0x4
    1cce:	0f b6 d0             	movzx  edx,al
    1cd1:	0f b6 45 fc          	movzx  eax,BYTE PTR [rbp-0x4]
    1cd5:	c0 f8 04             	sar    al,0x4
    1cd8:	0f be c0             	movsx  eax,al
    1cdb:	01 d0                	add    eax,edx
    1cdd:	3d f5 00 00 00       	cmp    eax,0xf5
    1ce2:	0f 94 c0             	sete   al
    1ce5:	5d                   	pop    rbp
    1ce6:	c3                   	ret    

0000000000001ce7 <f543247>:
    1ce7:	f3 0f 1e fa          	endbr64 
    1ceb:	55                   	push   rbp
    1cec:	48 89 e5             	mov    rbp,rsp
    1cef:	89 f8                	mov    eax,edi
    1cf1:	88 45 fc             	mov    BYTE PTR [rbp-0x4],al
    1cf4:	0f be 45 fc          	movsx  eax,BYTE PTR [rbp-0x4]
    1cf8:	c1 e0 04             	shl    eax,0x4
    1cfb:	0f b6 d0             	movzx  edx,al
    1cfe:	0f b6 45 fc          	movzx  eax,BYTE PTR [rbp-0x4]
    1d02:	c0 f8 04             	sar    al,0x4
    1d05:	0f be c0             	movsx  eax,al
    1d08:	01 d0                	add    eax,edx
    1d0a:	3d f4 00 00 00       	cmp    eax,0xf4
    1d0f:	0f 94 c0             	sete   al
    1d12:	5d                   	pop    rbp
    1d13:	c3                   	ret    

0000000000001d14 <f7109986>:
    1d14:	f3 0f 1e fa          	endbr64 
    1d18:	55                   	push   rbp
    1d19:	48 89 e5             	mov    rbp,rsp
    1d1c:	89 f8                	mov    eax,edi
    1d1e:	88 45 fc             	mov    BYTE PTR [rbp-0x4],al
    1d21:	0f be 45 fc          	movsx  eax,BYTE PTR [rbp-0x4]
    1d25:	c1 e0 04             	shl    eax,0x4
    1d28:	0f b6 d0             	movzx  edx,al
    1d2b:	0f b6 45 fc          	movzx  eax,BYTE PTR [rbp-0x4]
    1d2f:	c0 f8 04             	sar    al,0x4
    1d32:	0f be c0             	movsx  eax,al
    1d35:	01 d0                	add    eax,edx
    1d37:	3d b6 00 00 00       	cmp    eax,0xb6
    1d3c:	0f 94 c0             	sete   al
    1d3f:	5d                   	pop    rbp
    1d40:	c3                   	ret    

0000000000001d41 <f6472803>:
    1d41:	f3 0f 1e fa          	endbr64 
    1d45:	55                   	push   rbp
    1d46:	48 89 e5             	mov    rbp,rsp
    1d49:	89 f8                	mov    eax,edi
    1d4b:	88 45 fc             	mov    BYTE PTR [rbp-0x4],al
    1d4e:	0f be 45 fc          	movsx  eax,BYTE PTR [rbp-0x4]
    1d52:	c1 e0 04             	shl    eax,0x4
    1d55:	0f b6 d0             	movzx  edx,al
    1d58:	0f b6 45 fc          	movzx  eax,BYTE PTR [rbp-0x4]
    1d5c:	c0 f8 04             	sar    al,0x4
    1d5f:	0f be c0             	movsx  eax,al
    1d62:	01 d0                	add    eax,edx
    1d64:	3d f5 00 00 00       	cmp    eax,0xf5
    1d69:	0f 94 c0             	sete   al
    1d6c:	5d                   	pop    rbp
    1d6d:	c3                   	ret    

0000000000001d6e <f7656586>:
    1d6e:	f3 0f 1e fa          	endbr64 
    1d72:	55                   	push   rbp
    1d73:	48 89 e5             	mov    rbp,rsp
    1d76:	89 f8                	mov    eax,edi
    1d78:	88 45 fc             	mov    BYTE PTR [rbp-0x4],al
    1d7b:	0f be 45 fc          	movsx  eax,BYTE PTR [rbp-0x4]
    1d7f:	c1 e0 04             	shl    eax,0x4
    1d82:	0f b6 d0             	movzx  edx,al
    1d85:	0f b6 45 fc          	movzx  eax,BYTE PTR [rbp-0x4]
    1d89:	c0 f8 04             	sar    al,0x4
    1d8c:	0f be c0             	movsx  eax,al
    1d8f:	01 d0                	add    eax,edx
    1d91:	3d 94 00 00 00       	cmp    eax,0x94
    1d96:	0f 94 c0             	sete   al
    1d99:	5d                   	pop    rbp
    1d9a:	c3                   	ret    

0000000000001d9b <f2884700>:
    1d9b:	f3 0f 1e fa          	endbr64 
    1d9f:	55                   	push   rbp
    1da0:	48 89 e5             	mov    rbp,rsp
    1da3:	89 f8                	mov    eax,edi
    1da5:	88 45 fc             	mov    BYTE PTR [rbp-0x4],al
    1da8:	0f be 45 fc          	movsx  eax,BYTE PTR [rbp-0x4]
    1dac:	c1 e0 04             	shl    eax,0x4
    1daf:	0f b6 d0             	movzx  edx,al
    1db2:	0f b6 45 fc          	movzx  eax,BYTE PTR [rbp-0x4]
    1db6:	c0 f8 04             	sar    al,0x4
    1db9:	0f be c0             	movsx  eax,al
    1dbc:	01 d0                	add    eax,edx
    1dbe:	3d f5 00 00 00       	cmp    eax,0xf5
    1dc3:	0f 94 c0             	sete   al
    1dc6:	5d                   	pop    rbp
    1dc7:	c3                   	ret    

0000000000001dc8 <f8976878>:
    1dc8:	f3 0f 1e fa          	endbr64 
    1dcc:	55                   	push   rbp
    1dcd:	48 89 e5             	mov    rbp,rsp
    1dd0:	89 f8                	mov    eax,edi
    1dd2:	88 45 fc             	mov    BYTE PTR [rbp-0x4],al
    1dd5:	0f be 45 fc          	movsx  eax,BYTE PTR [rbp-0x4]
    1dd9:	c1 e0 04             	shl    eax,0x4
    1ddc:	0f b6 d0             	movzx  edx,al
    1ddf:	0f b6 45 fc          	movzx  eax,BYTE PTR [rbp-0x4]
    1de3:	c0 f8 04             	sar    al,0x4
    1de6:	0f be c0             	movsx  eax,al
    1de9:	01 d0                	add    eax,edx
    1deb:	83 f8 47             	cmp    eax,0x47
    1dee:	0f 94 c0             	sete   al
    1df1:	5d                   	pop    rbp
    1df2:	c3                   	ret    

0000000000001df3 <f8152608>:
    1df3:	f3 0f 1e fa          	endbr64 
    1df7:	55                   	push   rbp
    1df8:	48 89 e5             	mov    rbp,rsp
    1dfb:	89 f8                	mov    eax,edi
    1dfd:	88 45 fc             	mov    BYTE PTR [rbp-0x4],al
    1e00:	0f be 45 fc          	movsx  eax,BYTE PTR [rbp-0x4]
    1e04:	c1 e0 04             	shl    eax,0x4
    1e07:	0f b6 d0             	movzx  edx,al
    1e0a:	0f b6 45 fc          	movzx  eax,BYTE PTR [rbp-0x4]
    1e0e:	c0 f8 04             	sar    al,0x4
    1e11:	0f be c0             	movsx  eax,al
    1e14:	01 d0                	add    eax,edx
    1e16:	3d 86 00 00 00       	cmp    eax,0x86
    1e1b:	0f 94 c0             	sete   al
    1e1e:	5d                   	pop    rbp
    1e1f:	c3                   	ret    

0000000000001e20 <f9818014>:
    1e20:	f3 0f 1e fa          	endbr64 
    1e24:	55                   	push   rbp
    1e25:	48 89 e5             	mov    rbp,rsp
    1e28:	89 f8                	mov    eax,edi
    1e2a:	88 45 fc             	mov    BYTE PTR [rbp-0x4],al
    1e2d:	0f be 45 fc          	movsx  eax,BYTE PTR [rbp-0x4]
    1e31:	c1 e0 04             	shl    eax,0x4
    1e34:	0f b6 d0             	movzx  edx,al
    1e37:	0f b6 45 fc          	movzx  eax,BYTE PTR [rbp-0x4]
    1e3b:	c0 f8 04             	sar    al,0x4
    1e3e:	0f be c0             	movsx  eax,al
    1e41:	01 d0                	add    eax,edx
    1e43:	83 f8 13             	cmp    eax,0x13
    1e46:	0f 94 c0             	sete   al
    1e49:	5d                   	pop    rbp
    1e4a:	c3                   	ret    

0000000000001e4b <f8511877>:
    1e4b:	f3 0f 1e fa          	endbr64 
    1e4f:	55                   	push   rbp
    1e50:	48 89 e5             	mov    rbp,rsp
    1e53:	89 f8                	mov    eax,edi
    1e55:	88 45 fc             	mov    BYTE PTR [rbp-0x4],al
    1e58:	0f be 45 fc          	movsx  eax,BYTE PTR [rbp-0x4]
    1e5c:	c1 e0 04             	shl    eax,0x4
    1e5f:	0f b6 d0             	movzx  edx,al
    1e62:	0f b6 45 fc          	movzx  eax,BYTE PTR [rbp-0x4]
    1e66:	c0 f8 04             	sar    al,0x4
    1e69:	0f be c0             	movsx  eax,al
    1e6c:	01 d0                	add    eax,edx
    1e6e:	3d e6 00 00 00       	cmp    eax,0xe6
    1e73:	0f 94 c0             	sete   al
    1e76:	5d                   	pop    rbp
    1e77:	c3                   	ret    

0000000000001e78 <f8107564>:
    1e78:	f3 0f 1e fa          	endbr64 
    1e7c:	55                   	push   rbp
    1e7d:	48 89 e5             	mov    rbp,rsp
    1e80:	89 f8                	mov    eax,edi
    1e82:	88 45 fc             	mov    BYTE PTR [rbp-0x4],al
    1e85:	0f be 45 fc          	movsx  eax,BYTE PTR [rbp-0x4]
    1e89:	c1 e0 04             	shl    eax,0x4
    1e8c:	0f b6 d0             	movzx  edx,al
    1e8f:	0f b6 45 fc          	movzx  eax,BYTE PTR [rbp-0x4]
    1e93:	c0 f8 04             	sar    al,0x4
    1e96:	0f be c0             	movsx  eax,al
    1e99:	01 d0                	add    eax,edx
    1e9b:	3d b6 00 00 00       	cmp    eax,0xb6
    1ea0:	0f 94 c0             	sete   al
    1ea3:	5d                   	pop    rbp
    1ea4:	c3                   	ret    

0000000000001ea5 <f6805295>:
    1ea5:	f3 0f 1e fa          	endbr64 
    1ea9:	55                   	push   rbp
    1eaa:	48 89 e5             	mov    rbp,rsp
    1ead:	89 f8                	mov    eax,edi
    1eaf:	88 45 fc             	mov    BYTE PTR [rbp-0x4],al
    1eb2:	0f be 45 fc          	movsx  eax,BYTE PTR [rbp-0x4]
    1eb6:	c1 e0 04             	shl    eax,0x4
    1eb9:	0f b6 d0             	movzx  edx,al
    1ebc:	0f b6 45 fc          	movzx  eax,BYTE PTR [rbp-0x4]
    1ec0:	c0 f8 04             	sar    al,0x4
    1ec3:	0f be c0             	movsx  eax,al
    1ec6:	01 d0                	add    eax,edx
    1ec8:	3d f5 00 00 00       	cmp    eax,0xf5
    1ecd:	0f 94 c0             	sete   al
    1ed0:	5d                   	pop    rbp
    1ed1:	c3                   	ret    

0000000000001ed2 <f7429348>:
    1ed2:	f3 0f 1e fa          	endbr64 
    1ed6:	55                   	push   rbp
    1ed7:	48 89 e5             	mov    rbp,rsp
    1eda:	89 f8                	mov    eax,edi
    1edc:	88 45 fc             	mov    BYTE PTR [rbp-0x4],al
    1edf:	0f be 45 fc          	movsx  eax,BYTE PTR [rbp-0x4]
    1ee3:	c1 e0 04             	shl    eax,0x4
    1ee6:	0f b6 d0             	movzx  edx,al
    1ee9:	0f b6 45 fc          	movzx  eax,BYTE PTR [rbp-0x4]
    1eed:	c0 f8 04             	sar    al,0x4
    1ef0:	0f be c0             	movsx  eax,al
    1ef3:	01 d0                	add    eax,edx
    1ef5:	3d 97 00 00 00       	cmp    eax,0x97
    1efa:	0f 94 c0             	sete   al
    1efd:	5d                   	pop    rbp
    1efe:	c3                   	ret    

0000000000001eff <f8265912>:
    1eff:	f3 0f 1e fa          	endbr64 
    1f03:	55                   	push   rbp
    1f04:	48 89 e5             	mov    rbp,rsp
    1f07:	89 f8                	mov    eax,edi
    1f09:	88 45 fc             	mov    BYTE PTR [rbp-0x4],al
    1f0c:	0f be 45 fc          	movsx  eax,BYTE PTR [rbp-0x4]
    1f10:	c1 e0 04             	shl    eax,0x4
    1f13:	0f b6 d0             	movzx  edx,al
    1f16:	0f b6 45 fc          	movzx  eax,BYTE PTR [rbp-0x4]
    1f1a:	c0 f8 04             	sar    al,0x4
    1f1d:	0f be c0             	movsx  eax,al
    1f20:	01 d0                	add    eax,edx
    1f22:	83 f8 03             	cmp    eax,0x3
    1f25:	0f 94 c0             	sete   al
    1f28:	5d                   	pop    rbp
    1f29:	c3                   	ret    

0000000000001f2a <f3580401>:
    1f2a:	f3 0f 1e fa          	endbr64 
    1f2e:	55                   	push   rbp
    1f2f:	48 89 e5             	mov    rbp,rsp
    1f32:	89 f8                	mov    eax,edi
    1f34:	88 45 fc             	mov    BYTE PTR [rbp-0x4],al
    1f37:	0f be 45 fc          	movsx  eax,BYTE PTR [rbp-0x4]
    1f3b:	c1 e0 04             	shl    eax,0x4
    1f3e:	0f b6 d0             	movzx  edx,al
    1f41:	0f b6 45 fc          	movzx  eax,BYTE PTR [rbp-0x4]
    1f45:	c0 f8 04             	sar    al,0x4
    1f48:	0f be c0             	movsx  eax,al
    1f4b:	01 d0                	add    eax,edx
    1f4d:	83 f8 57             	cmp    eax,0x57
    1f50:	0f 94 c0             	sete   al
    1f53:	5d                   	pop    rbp
    1f54:	c3                   	ret    

0000000000001f55 <f8346581>:
    1f55:	f3 0f 1e fa          	endbr64 
    1f59:	55                   	push   rbp
    1f5a:	48 89 e5             	mov    rbp,rsp
    1f5d:	89 f8                	mov    eax,edi
    1f5f:	88 45 fc             	mov    BYTE PTR [rbp-0x4],al
    1f62:	0f be 45 fc          	movsx  eax,BYTE PTR [rbp-0x4]
    1f66:	c1 e0 04             	shl    eax,0x4
    1f69:	0f b6 d0             	movzx  edx,al
    1f6c:	0f b6 45 fc          	movzx  eax,BYTE PTR [rbp-0x4]
    1f70:	c0 f8 04             	sar    al,0x4
    1f73:	0f be c0             	movsx  eax,al
    1f76:	01 d0                	add    eax,edx
    1f78:	3d f5 00 00 00       	cmp    eax,0xf5
    1f7d:	0f 94 c0             	sete   al
    1f80:	5d                   	pop    rbp
    1f81:	c3                   	ret    

0000000000001f82 <f5751977>:
    1f82:	f3 0f 1e fa          	endbr64 
    1f86:	55                   	push   rbp
    1f87:	48 89 e5             	mov    rbp,rsp
    1f8a:	89 f8                	mov    eax,edi
    1f8c:	88 45 fc             	mov    BYTE PTR [rbp-0x4],al
    1f8f:	0f be 45 fc          	movsx  eax,BYTE PTR [rbp-0x4]
    1f93:	c1 e0 04             	shl    eax,0x4
    1f96:	0f b6 d0             	movzx  edx,al
    1f99:	0f b6 45 fc          	movzx  eax,BYTE PTR [rbp-0x4]
    1f9d:	c0 f8 04             	sar    al,0x4
    1fa0:	0f be c0             	movsx  eax,al
    1fa3:	01 d0                	add    eax,edx
    1fa5:	83 f8 26             	cmp    eax,0x26
    1fa8:	0f 94 c0             	sete   al
    1fab:	5d                   	pop    rbp
    1fac:	c3                   	ret    

0000000000001fad <f3210599>:
    1fad:	f3 0f 1e fa          	endbr64 
    1fb1:	55                   	push   rbp
    1fb2:	48 89 e5             	mov    rbp,rsp
    1fb5:	89 f8                	mov    eax,edi
    1fb7:	88 45 fc             	mov    BYTE PTR [rbp-0x4],al
    1fba:	0f be 45 fc          	movsx  eax,BYTE PTR [rbp-0x4]
    1fbe:	c1 e0 04             	shl    eax,0x4
    1fc1:	0f b6 d0             	movzx  edx,al
    1fc4:	0f b6 45 fc          	movzx  eax,BYTE PTR [rbp-0x4]
    1fc8:	c0 f8 04             	sar    al,0x4
    1fcb:	0f be c0             	movsx  eax,al
    1fce:	01 d0                	add    eax,edx
    1fd0:	83 f8 33             	cmp    eax,0x33
    1fd3:	0f 94 c0             	sete   al
    1fd6:	5d                   	pop    rbp
    1fd7:	c3                   	ret    

0000000000001fd8 <f1415318>:
    1fd8:	f3 0f 1e fa          	endbr64 
    1fdc:	55                   	push   rbp
    1fdd:	48 89 e5             	mov    rbp,rsp
    1fe0:	89 f8                	mov    eax,edi
    1fe2:	88 45 fc             	mov    BYTE PTR [rbp-0x4],al
    1fe5:	0f be 45 fc          	movsx  eax,BYTE PTR [rbp-0x4]
    1fe9:	c1 e0 04             	shl    eax,0x4
    1fec:	0f b6 d0             	movzx  edx,al
    1fef:	0f b6 45 fc          	movzx  eax,BYTE PTR [rbp-0x4]
    1ff3:	c0 f8 04             	sar    al,0x4
    1ff6:	0f be c0             	movsx  eax,al
    1ff9:	01 d0                	add    eax,edx
    1ffb:	83 f8 47             	cmp    eax,0x47
    1ffe:	0f 94 c0             	sete   al
    2001:	5d                   	pop    rbp
    2002:	c3                   	ret    

0000000000002003 <f3734500>:
    2003:	f3 0f 1e fa          	endbr64 
    2007:	55                   	push   rbp
    2008:	48 89 e5             	mov    rbp,rsp
    200b:	89 f8                	mov    eax,edi
    200d:	88 45 fc             	mov    BYTE PTR [rbp-0x4],al
    2010:	0f be 45 fc          	movsx  eax,BYTE PTR [rbp-0x4]
    2014:	c1 e0 04             	shl    eax,0x4
    2017:	0f b6 d0             	movzx  edx,al
    201a:	0f b6 45 fc          	movzx  eax,BYTE PTR [rbp-0x4]
    201e:	c0 f8 04             	sar    al,0x4
    2021:	0f be c0             	movsx  eax,al
    2024:	01 d0                	add    eax,edx
    2026:	83 f8 47             	cmp    eax,0x47
    2029:	0f 94 c0             	sete   al
    202c:	5d                   	pop    rbp
    202d:	c3                   	ret    

000000000000202e <f8917722>:
    202e:	f3 0f 1e fa          	endbr64 
    2032:	55                   	push   rbp
    2033:	48 89 e5             	mov    rbp,rsp
    2036:	89 f8                	mov    eax,edi
    2038:	88 45 fc             	mov    BYTE PTR [rbp-0x4],al
    203b:	0f be 45 fc          	movsx  eax,BYTE PTR [rbp-0x4]
    203f:	c1 e0 04             	shl    eax,0x4
    2042:	0f b6 d0             	movzx  edx,al
    2045:	0f b6 45 fc          	movzx  eax,BYTE PTR [rbp-0x4]
    2049:	c0 f8 04             	sar    al,0x4
    204c:	0f be c0             	movsx  eax,al
    204f:	01 d0                	add    eax,edx
    2051:	83 f8 33             	cmp    eax,0x33
    2054:	0f 94 c0             	sete   al
    2057:	5d                   	pop    rbp
    2058:	c3                   	ret    

0000000000002059 <f7283249>:
    2059:	f3 0f 1e fa          	endbr64 
    205d:	55                   	push   rbp
    205e:	48 89 e5             	mov    rbp,rsp
    2061:	89 f8                	mov    eax,edi
    2063:	88 45 fc             	mov    BYTE PTR [rbp-0x4],al
    2066:	0f be 45 fc          	movsx  eax,BYTE PTR [rbp-0x4]
    206a:	c1 e0 04             	shl    eax,0x4
    206d:	0f b6 d0             	movzx  edx,al
    2070:	0f b6 45 fc          	movzx  eax,BYTE PTR [rbp-0x4]
    2074:	c0 f8 04             	sar    al,0x4
    2077:	0f be c0             	movsx  eax,al
    207a:	01 d0                	add    eax,edx
    207c:	83 f8 27             	cmp    eax,0x27
    207f:	0f 94 c0             	sete   al
    2082:	5d                   	pop    rbp
    2083:	c3                   	ret    

0000000000002084 <f8622882>:
    2084:	f3 0f 1e fa          	endbr64 
    2088:	55                   	push   rbp
    2089:	48 89 e5             	mov    rbp,rsp
    208c:	89 f8                	mov    eax,edi
    208e:	88 45 fc             	mov    BYTE PTR [rbp-0x4],al
    2091:	0f be 45 fc          	movsx  eax,BYTE PTR [rbp-0x4]
    2095:	c1 e0 04             	shl    eax,0x4
    2098:	0f b6 d0             	movzx  edx,al
    209b:	0f b6 45 fc          	movzx  eax,BYTE PTR [rbp-0x4]
    209f:	c0 f8 04             	sar    al,0x4
    20a2:	0f be c0             	movsx  eax,al
    20a5:	01 d0                	add    eax,edx
    20a7:	3d f5 00 00 00       	cmp    eax,0xf5
    20ac:	0f 94 c0             	sete   al
    20af:	5d                   	pop    rbp
    20b0:	c3                   	ret    

00000000000020b1 <f1221298>:
    20b1:	f3 0f 1e fa          	endbr64 
    20b5:	55                   	push   rbp
    20b6:	48 89 e5             	mov    rbp,rsp
    20b9:	89 f8                	mov    eax,edi
    20bb:	88 45 fc             	mov    BYTE PTR [rbp-0x4],al
    20be:	0f be 45 fc          	movsx  eax,BYTE PTR [rbp-0x4]
    20c2:	c1 e0 04             	shl    eax,0x4
    20c5:	0f b6 d0             	movzx  edx,al
    20c8:	0f b6 45 fc          	movzx  eax,BYTE PTR [rbp-0x4]
    20cc:	c0 f8 04             	sar    al,0x4
    20cf:	0f be c0             	movsx  eax,al
    20d2:	01 d0                	add    eax,edx
    20d4:	83 f8 57             	cmp    eax,0x57
    20d7:	0f 94 c0             	sete   al
    20da:	5d                   	pop    rbp
    20db:	c3                   	ret    

00000000000020dc <f2575656>:
    20dc:	f3 0f 1e fa          	endbr64 
    20e0:	55                   	push   rbp
    20e1:	48 89 e5             	mov    rbp,rsp
    20e4:	89 f8                	mov    eax,edi
    20e6:	88 45 fc             	mov    BYTE PTR [rbp-0x4],al
    20e9:	0f be 45 fc          	movsx  eax,BYTE PTR [rbp-0x4]
    20ed:	c1 e0 04             	shl    eax,0x4
    20f0:	0f b6 d0             	movzx  edx,al
    20f3:	0f b6 45 fc          	movzx  eax,BYTE PTR [rbp-0x4]
    20f7:	c0 f8 04             	sar    al,0x4
    20fa:	0f be c0             	movsx  eax,al
    20fd:	01 d0                	add    eax,edx
    20ff:	83 f8 37             	cmp    eax,0x37
    2102:	0f 94 c0             	sete   al
    2105:	5d                   	pop    rbp
    2106:	c3                   	ret    

0000000000002107 <f2048837>:
    2107:	f3 0f 1e fa          	endbr64 
    210b:	55                   	push   rbp
    210c:	48 89 e5             	mov    rbp,rsp
    210f:	89 f8                	mov    eax,edi
    2111:	88 45 fc             	mov    BYTE PTR [rbp-0x4],al
    2114:	0f be 45 fc          	movsx  eax,BYTE PTR [rbp-0x4]
    2118:	c1 e0 04             	shl    eax,0x4
    211b:	0f b6 d0             	movzx  edx,al
    211e:	0f b6 45 fc          	movzx  eax,BYTE PTR [rbp-0x4]
    2122:	c0 f8 04             	sar    al,0x4
    2125:	0f be c0             	movsx  eax,al
    2128:	01 d0                	add    eax,edx
    212a:	83 f8 33             	cmp    eax,0x33
    212d:	0f 94 c0             	sete   al
    2130:	5d                   	pop    rbp
    2131:	c3                   	ret    

0000000000002132 <f2256059>:
    2132:	f3 0f 1e fa          	endbr64 
    2136:	55                   	push   rbp
    2137:	48 89 e5             	mov    rbp,rsp
    213a:	89 f8                	mov    eax,edi
    213c:	88 45 fc             	mov    BYTE PTR [rbp-0x4],al
    213f:	0f be 45 fc          	movsx  eax,BYTE PTR [rbp-0x4]
    2143:	c1 e0 04             	shl    eax,0x4
    2146:	0f b6 d0             	movzx  edx,al
    2149:	0f b6 45 fc          	movzx  eax,BYTE PTR [rbp-0x4]
    214d:	c0 f8 04             	sar    al,0x4
    2150:	0f be c0             	movsx  eax,al
    2153:	01 d0                	add    eax,edx
    2155:	3d f5 00 00 00       	cmp    eax,0xf5
    215a:	0f 94 c0             	sete   al
    215d:	5d                   	pop    rbp
    215e:	c3                   	ret    

000000000000215f <f1257459>:
    215f:	f3 0f 1e fa          	endbr64 
    2163:	55                   	push   rbp
    2164:	48 89 e5             	mov    rbp,rsp
    2167:	89 f8                	mov    eax,edi
    2169:	88 45 fc             	mov    BYTE PTR [rbp-0x4],al
    216c:	0f be 45 fc          	movsx  eax,BYTE PTR [rbp-0x4]
    2170:	c1 e0 04             	shl    eax,0x4
    2173:	0f b6 d0             	movzx  edx,al
    2176:	0f b6 45 fc          	movzx  eax,BYTE PTR [rbp-0x4]
    217a:	c0 f8 04             	sar    al,0x4
    217d:	0f be c0             	movsx  eax,al
    2180:	01 d0                	add    eax,edx
    2182:	83 f8 37             	cmp    eax,0x37
    2185:	0f 94 c0             	sete   al
    2188:	5d                   	pop    rbp
    2189:	c3                   	ret    

000000000000218a <f5021108>:
    218a:	f3 0f 1e fa          	endbr64 
    218e:	55                   	push   rbp
    218f:	48 89 e5             	mov    rbp,rsp
    2192:	89 f8                	mov    eax,edi
    2194:	88 45 fc             	mov    BYTE PTR [rbp-0x4],al
    2197:	0f be 45 fc          	movsx  eax,BYTE PTR [rbp-0x4]
    219b:	c1 e0 04             	shl    eax,0x4
    219e:	0f b6 d0             	movzx  edx,al
    21a1:	0f b6 45 fc          	movzx  eax,BYTE PTR [rbp-0x4]
    21a5:	c0 f8 04             	sar    al,0x4
    21a8:	0f be c0             	movsx  eax,al
    21ab:	01 d0                	add    eax,edx
    21ad:	83 f8 03             	cmp    eax,0x3
    21b0:	0f 94 c0             	sete   al
    21b3:	5d                   	pop    rbp
    21b4:	c3                   	ret    

00000000000021b5 <f8183340>:
    21b5:	f3 0f 1e fa          	endbr64 
    21b9:	55                   	push   rbp
    21ba:	48 89 e5             	mov    rbp,rsp
    21bd:	89 f8                	mov    eax,edi
    21bf:	88 45 fc             	mov    BYTE PTR [rbp-0x4],al
    21c2:	0f be 45 fc          	movsx  eax,BYTE PTR [rbp-0x4]
    21c6:	c1 e0 04             	shl    eax,0x4
    21c9:	0f b6 d0             	movzx  edx,al
    21cc:	0f b6 45 fc          	movzx  eax,BYTE PTR [rbp-0x4]
    21d0:	c0 f8 04             	sar    al,0x4
    21d3:	0f be c0             	movsx  eax,al
    21d6:	01 d0                	add    eax,edx
    21d8:	3d d6 00 00 00       	cmp    eax,0xd6
    21dd:	0f 94 c0             	sete   al
    21e0:	5d                   	pop    rbp
    21e1:	c3                   	ret    

00000000000021e2 <f4188611>:
    21e2:	f3 0f 1e fa          	endbr64 
    21e6:	55                   	push   rbp
    21e7:	48 89 e5             	mov    rbp,rsp
    21ea:	89 f8                	mov    eax,edi
    21ec:	88 45 fc             	mov    BYTE PTR [rbp-0x4],al
    21ef:	0f be 45 fc          	movsx  eax,BYTE PTR [rbp-0x4]
    21f3:	c1 e0 04             	shl    eax,0x4
    21f6:	0f b6 d0             	movzx  edx,al
    21f9:	0f b6 45 fc          	movzx  eax,BYTE PTR [rbp-0x4]
    21fd:	c0 f8 04             	sar    al,0x4
    2200:	0f be c0             	movsx  eax,al
    2203:	01 d0                	add    eax,edx
    2205:	83 f8 33             	cmp    eax,0x33
    2208:	0f 94 c0             	sete   al
    220b:	5d                   	pop    rbp
    220c:	c3                   	ret    

000000000000220d <f7842102>:
    220d:	f3 0f 1e fa          	endbr64 
    2211:	55                   	push   rbp
    2212:	48 89 e5             	mov    rbp,rsp
    2215:	89 f8                	mov    eax,edi
    2217:	88 45 fc             	mov    BYTE PTR [rbp-0x4],al
    221a:	0f be 45 fc          	movsx  eax,BYTE PTR [rbp-0x4]
    221e:	c1 e0 04             	shl    eax,0x4
    2221:	0f b6 d0             	movzx  edx,al
    2224:	0f b6 45 fc          	movzx  eax,BYTE PTR [rbp-0x4]
    2228:	c0 f8 04             	sar    al,0x4
    222b:	0f be c0             	movsx  eax,al
    222e:	01 d0                	add    eax,edx
    2230:	3d f5 00 00 00       	cmp    eax,0xf5
    2235:	0f 94 c0             	sete   al
    2238:	5d                   	pop    rbp
    2239:	c3                   	ret    

000000000000223a <f5218775>:
    223a:	f3 0f 1e fa          	endbr64 
    223e:	55                   	push   rbp
    223f:	48 89 e5             	mov    rbp,rsp
    2242:	89 f8                	mov    eax,edi
    2244:	88 45 fc             	mov    BYTE PTR [rbp-0x4],al
    2247:	0f be 45 fc          	movsx  eax,BYTE PTR [rbp-0x4]
    224b:	c1 e0 04             	shl    eax,0x4
    224e:	0f b6 d0             	movzx  edx,al
    2251:	0f b6 45 fc          	movzx  eax,BYTE PTR [rbp-0x4]
    2255:	c0 f8 04             	sar    al,0x4
    2258:	0f be c0             	movsx  eax,al
    225b:	01 d0                	add    eax,edx
    225d:	83 f8 16             	cmp    eax,0x16
    2260:	0f 94 c0             	sete   al
    2263:	5d                   	pop    rbp
    2264:	c3                   	ret    

0000000000002265 <f8862806>:
    2265:	f3 0f 1e fa          	endbr64 
    2269:	55                   	push   rbp
    226a:	48 89 e5             	mov    rbp,rsp
    226d:	89 f8                	mov    eax,edi
    226f:	88 45 fc             	mov    BYTE PTR [rbp-0x4],al
    2272:	0f be 45 fc          	movsx  eax,BYTE PTR [rbp-0x4]
    2276:	c1 e0 04             	shl    eax,0x4
    2279:	0f b6 d0             	movzx  edx,al
    227c:	0f b6 45 fc          	movzx  eax,BYTE PTR [rbp-0x4]
    2280:	c0 f8 04             	sar    al,0x4
    2283:	0f be c0             	movsx  eax,al
    2286:	01 d0                	add    eax,edx
    2288:	83 f8 57             	cmp    eax,0x57
    228b:	0f 94 c0             	sete   al
    228e:	5d                   	pop    rbp
    228f:	c3                   	ret    

0000000000002290 <f7824321>:
    2290:	f3 0f 1e fa          	endbr64 
    2294:	55                   	push   rbp
    2295:	48 89 e5             	mov    rbp,rsp
    2298:	89 f8                	mov    eax,edi
    229a:	88 45 fc             	mov    BYTE PTR [rbp-0x4],al
    229d:	0f be 45 fc          	movsx  eax,BYTE PTR [rbp-0x4]
    22a1:	c1 e0 04             	shl    eax,0x4
    22a4:	0f b6 d0             	movzx  edx,al
    22a7:	0f b6 45 fc          	movzx  eax,BYTE PTR [rbp-0x4]
    22ab:	c0 f8 04             	sar    al,0x4
    22ae:	0f be c0             	movsx  eax,al
    22b1:	01 d0                	add    eax,edx
    22b3:	83 f8 47             	cmp    eax,0x47
    22b6:	0f 94 c0             	sete   al
    22b9:	5d                   	pop    rbp
    22ba:	c3                   	ret    

00000000000022bb <f3450917>:
    22bb:	f3 0f 1e fa          	endbr64 
    22bf:	55                   	push   rbp
    22c0:	48 89 e5             	mov    rbp,rsp
    22c3:	89 f8                	mov    eax,edi
    22c5:	88 45 fc             	mov    BYTE PTR [rbp-0x4],al
    22c8:	0f be 45 fc          	movsx  eax,BYTE PTR [rbp-0x4]
    22cc:	c1 e0 04             	shl    eax,0x4
    22cf:	0f b6 d0             	movzx  edx,al
    22d2:	0f b6 45 fc          	movzx  eax,BYTE PTR [rbp-0x4]
    22d6:	c0 f8 04             	sar    al,0x4
    22d9:	0f be c0             	movsx  eax,al
    22dc:	01 d0                	add    eax,edx
    22de:	83 f8 03             	cmp    eax,0x3
    22e1:	0f 94 c0             	sete   al
    22e4:	5d                   	pop    rbp
    22e5:	c3                   	ret    

00000000000022e6 <f1224443>:
    22e6:	f3 0f 1e fa          	endbr64 
    22ea:	55                   	push   rbp
    22eb:	48 89 e5             	mov    rbp,rsp
    22ee:	89 f8                	mov    eax,edi
    22f0:	88 45 fc             	mov    BYTE PTR [rbp-0x4],al
    22f3:	0f be 45 fc          	movsx  eax,BYTE PTR [rbp-0x4]
    22f7:	c1 e0 04             	shl    eax,0x4
    22fa:	0f b6 d0             	movzx  edx,al
    22fd:	0f b6 45 fc          	movzx  eax,BYTE PTR [rbp-0x4]
    2301:	c0 f8 04             	sar    al,0x4
    2304:	0f be c0             	movsx  eax,al
    2307:	01 d0                	add    eax,edx
    2309:	3d d6 00 00 00       	cmp    eax,0xd6
    230e:	0f 94 c0             	sete   al
    2311:	5d                   	pop    rbp
    2312:	c3                   	ret    

0000000000002313 <f1210252>:
    2313:	f3 0f 1e fa          	endbr64 
    2317:	55                   	push   rbp
    2318:	48 89 e5             	mov    rbp,rsp
    231b:	89 f8                	mov    eax,edi
    231d:	88 45 fc             	mov    BYTE PTR [rbp-0x4],al
    2320:	0f be 45 fc          	movsx  eax,BYTE PTR [rbp-0x4]
    2324:	c1 e0 04             	shl    eax,0x4
    2327:	0f b6 d0             	movzx  edx,al
    232a:	0f b6 45 fc          	movzx  eax,BYTE PTR [rbp-0x4]
    232e:	c0 f8 04             	sar    al,0x4
    2331:	0f be c0             	movsx  eax,al
    2334:	01 d0                	add    eax,edx
    2336:	83 f8 43             	cmp    eax,0x43
    2339:	0f 94 c0             	sete   al
    233c:	5d                   	pop    rbp
    233d:	c3                   	ret    

000000000000233e <f1011265>:
    233e:	f3 0f 1e fa          	endbr64 
    2342:	55                   	push   rbp
    2343:	48 89 e5             	mov    rbp,rsp
    2346:	89 f8                	mov    eax,edi
    2348:	88 45 fc             	mov    BYTE PTR [rbp-0x4],al
    234b:	0f be 45 fc          	movsx  eax,BYTE PTR [rbp-0x4]
    234f:	c1 e0 04             	shl    eax,0x4
    2352:	0f b6 d0             	movzx  edx,al
    2355:	0f b6 45 fc          	movzx  eax,BYTE PTR [rbp-0x4]
    2359:	c0 f8 04             	sar    al,0x4
    235c:	0f be c0             	movsx  eax,al
    235f:	01 d0                	add    eax,edx
    2361:	83 f8 47             	cmp    eax,0x47
    2364:	0f 94 c0             	sete   al
    2367:	5d                   	pop    rbp
    2368:	c3                   	ret    

0000000000002369 <f8011510>:
    2369:	f3 0f 1e fa          	endbr64 
    236d:	55                   	push   rbp
    236e:	48 89 e5             	mov    rbp,rsp
    2371:	89 f8                	mov    eax,edi
    2373:	88 45 fc             	mov    BYTE PTR [rbp-0x4],al
    2376:	0f be 45 fc          	movsx  eax,BYTE PTR [rbp-0x4]
    237a:	c1 e0 04             	shl    eax,0x4
    237d:	0f b6 d0             	movzx  edx,al
    2380:	0f b6 45 fc          	movzx  eax,BYTE PTR [rbp-0x4]
    2384:	c0 f8 04             	sar    al,0x4
    2387:	0f be c0             	movsx  eax,al
    238a:	01 d0                	add    eax,edx
    238c:	83 f8 33             	cmp    eax,0x33
    238f:	0f 94 c0             	sete   al
    2392:	5d                   	pop    rbp
    2393:	c3                   	ret    

0000000000002394 <f1083193>:
    2394:	f3 0f 1e fa          	endbr64 
    2398:	55                   	push   rbp
    2399:	48 89 e5             	mov    rbp,rsp
    239c:	89 f8                	mov    eax,edi
    239e:	88 45 fc             	mov    BYTE PTR [rbp-0x4],al
    23a1:	0f be 45 fc          	movsx  eax,BYTE PTR [rbp-0x4]
    23a5:	c1 e0 04             	shl    eax,0x4
    23a8:	0f b6 d0             	movzx  edx,al
    23ab:	0f b6 45 fc          	movzx  eax,BYTE PTR [rbp-0x4]
    23af:	c0 f8 04             	sar    al,0x4
    23b2:	0f be c0             	movsx  eax,al
    23b5:	01 d0                	add    eax,edx
    23b7:	83 f8 46             	cmp    eax,0x46
    23ba:	0f 94 c0             	sete   al
    23bd:	5d                   	pop    rbp
    23be:	c3                   	ret    

00000000000023bf <f2547905>:
    23bf:	f3 0f 1e fa          	endbr64 
    23c3:	55                   	push   rbp
    23c4:	48 89 e5             	mov    rbp,rsp
    23c7:	89 f8                	mov    eax,edi
    23c9:	88 45 fc             	mov    BYTE PTR [rbp-0x4],al
    23cc:	0f be 45 fc          	movsx  eax,BYTE PTR [rbp-0x4]
    23d0:	c1 e0 04             	shl    eax,0x4
    23d3:	0f b6 d0             	movzx  edx,al
    23d6:	0f b6 45 fc          	movzx  eax,BYTE PTR [rbp-0x4]
    23da:	c0 f8 04             	sar    al,0x4
    23dd:	0f be c0             	movsx  eax,al
    23e0:	01 d0                	add    eax,edx
    23e2:	3d f5 00 00 00       	cmp    eax,0xf5
    23e7:	0f 94 c0             	sete   al
    23ea:	5d                   	pop    rbp
    23eb:	c3                   	ret    

00000000000023ec <f5585047>:
    23ec:	f3 0f 1e fa          	endbr64 
    23f0:	55                   	push   rbp
    23f1:	48 89 e5             	mov    rbp,rsp
    23f4:	89 f8                	mov    eax,edi
    23f6:	88 45 fc             	mov    BYTE PTR [rbp-0x4],al
    23f9:	0f be 45 fc          	movsx  eax,BYTE PTR [rbp-0x4]
    23fd:	c1 e0 04             	shl    eax,0x4
    2400:	0f b6 d0             	movzx  edx,al
    2403:	0f b6 45 fc          	movzx  eax,BYTE PTR [rbp-0x4]
    2407:	c0 f8 04             	sar    al,0x4
    240a:	0f be c0             	movsx  eax,al
    240d:	01 d0                	add    eax,edx
    240f:	83 f8 47             	cmp    eax,0x47
    2412:	0f 94 c0             	sete   al
    2415:	5d                   	pop    rbp
    2416:	c3                   	ret    

0000000000002417 <f9747250>:
    2417:	f3 0f 1e fa          	endbr64 
    241b:	55                   	push   rbp
    241c:	48 89 e5             	mov    rbp,rsp
    241f:	89 f8                	mov    eax,edi
    2421:	88 45 fc             	mov    BYTE PTR [rbp-0x4],al
    2424:	0f be 45 fc          	movsx  eax,BYTE PTR [rbp-0x4]
    2428:	c1 e0 04             	shl    eax,0x4
    242b:	0f b6 d0             	movzx  edx,al
    242e:	0f b6 45 fc          	movzx  eax,BYTE PTR [rbp-0x4]
    2432:	c0 f8 04             	sar    al,0x4
    2435:	0f be c0             	movsx  eax,al
    2438:	01 d0                	add    eax,edx
    243a:	83 f8 03             	cmp    eax,0x3
    243d:	0f 94 c0             	sete   al
    2440:	5d                   	pop    rbp
    2441:	c3                   	ret    

0000000000002442 <f2454679>:
    2442:	f3 0f 1e fa          	endbr64 
    2446:	55                   	push   rbp
    2447:	48 89 e5             	mov    rbp,rsp
    244a:	89 f8                	mov    eax,edi
    244c:	88 45 fc             	mov    BYTE PTR [rbp-0x4],al
    244f:	0f be 45 fc          	movsx  eax,BYTE PTR [rbp-0x4]
    2453:	c1 e0 04             	shl    eax,0x4
    2456:	0f b6 d0             	movzx  edx,al
    2459:	0f b6 45 fc          	movzx  eax,BYTE PTR [rbp-0x4]
    245d:	c0 f8 04             	sar    al,0x4
    2460:	0f be c0             	movsx  eax,al
    2463:	01 d0                	add    eax,edx
    2465:	83 f8 03             	cmp    eax,0x3
    2468:	0f 94 c0             	sete   al
    246b:	5d                   	pop    rbp
    246c:	c3                   	ret    

000000000000246d <f5724032>:
    246d:	f3 0f 1e fa          	endbr64 
    2471:	55                   	push   rbp
    2472:	48 89 e5             	mov    rbp,rsp
    2475:	89 f8                	mov    eax,edi
    2477:	88 45 fc             	mov    BYTE PTR [rbp-0x4],al
    247a:	0f be 45 fc          	movsx  eax,BYTE PTR [rbp-0x4]
    247e:	c1 e0 04             	shl    eax,0x4
    2481:	0f b6 d0             	movzx  edx,al
    2484:	0f b6 45 fc          	movzx  eax,BYTE PTR [rbp-0x4]
    2488:	c0 f8 04             	sar    al,0x4
    248b:	0f be c0             	movsx  eax,al
    248e:	01 d0                	add    eax,edx
    2490:	3d c6 00 00 00       	cmp    eax,0xc6
    2495:	0f 94 c0             	sete   al
    2498:	5d                   	pop    rbp
    2499:	c3                   	ret    

000000000000249a <f1871302>:
    249a:	f3 0f 1e fa          	endbr64 
    249e:	55                   	push   rbp
    249f:	48 89 e5             	mov    rbp,rsp
    24a2:	89 f8                	mov    eax,edi
    24a4:	88 45 fc             	mov    BYTE PTR [rbp-0x4],al
    24a7:	0f be 45 fc          	movsx  eax,BYTE PTR [rbp-0x4]
    24ab:	c1 e0 04             	shl    eax,0x4
    24ae:	0f b6 d0             	movzx  edx,al
    24b1:	0f b6 45 fc          	movzx  eax,BYTE PTR [rbp-0x4]
    24b5:	c0 f8 04             	sar    al,0x4
    24b8:	0f be c0             	movsx  eax,al
    24bb:	01 d0                	add    eax,edx
    24bd:	83 f8 37             	cmp    eax,0x37
    24c0:	0f 94 c0             	sete   al
    24c3:	5d                   	pop    rbp
    24c4:	c3                   	ret    

00000000000024c5 <f4168763>:
    24c5:	f3 0f 1e fa          	endbr64 
    24c9:	55                   	push   rbp
    24ca:	48 89 e5             	mov    rbp,rsp
    24cd:	89 f8                	mov    eax,edi
    24cf:	88 45 fc             	mov    BYTE PTR [rbp-0x4],al
    24d2:	0f be 45 fc          	movsx  eax,BYTE PTR [rbp-0x4]
    24d6:	c1 e0 04             	shl    eax,0x4
    24d9:	0f b6 d0             	movzx  edx,al
    24dc:	0f b6 45 fc          	movzx  eax,BYTE PTR [rbp-0x4]
    24e0:	c0 f8 04             	sar    al,0x4
    24e3:	0f be c0             	movsx  eax,al
    24e6:	01 d0                	add    eax,edx
    24e8:	3d f5 00 00 00       	cmp    eax,0xf5
    24ed:	0f 94 c0             	sete   al
    24f0:	5d                   	pop    rbp
    24f1:	c3                   	ret    

00000000000024f2 <f3207138>:
    24f2:	f3 0f 1e fa          	endbr64 
    24f6:	55                   	push   rbp
    24f7:	48 89 e5             	mov    rbp,rsp
    24fa:	89 f8                	mov    eax,edi
    24fc:	88 45 fc             	mov    BYTE PTR [rbp-0x4],al
    24ff:	0f be 45 fc          	movsx  eax,BYTE PTR [rbp-0x4]
    2503:	c1 e0 04             	shl    eax,0x4
    2506:	0f b6 d0             	movzx  edx,al
    2509:	0f b6 45 fc          	movzx  eax,BYTE PTR [rbp-0x4]
    250d:	c0 f8 04             	sar    al,0x4
    2510:	0f be c0             	movsx  eax,al
    2513:	01 d0                	add    eax,edx
    2515:	3d c6 00 00 00       	cmp    eax,0xc6
    251a:	0f 94 c0             	sete   al
    251d:	5d                   	pop    rbp
    251e:	c3                   	ret    

000000000000251f <f4692198>:
    251f:	f3 0f 1e fa          	endbr64 
    2523:	55                   	push   rbp
    2524:	48 89 e5             	mov    rbp,rsp
    2527:	89 f8                	mov    eax,edi
    2529:	88 45 fc             	mov    BYTE PTR [rbp-0x4],al
    252c:	0f be 45 fc          	movsx  eax,BYTE PTR [rbp-0x4]
    2530:	c1 e0 04             	shl    eax,0x4
    2533:	0f b6 d0             	movzx  edx,al
    2536:	0f b6 45 fc          	movzx  eax,BYTE PTR [rbp-0x4]
    253a:	c0 f8 04             	sar    al,0x4
    253d:	0f be c0             	movsx  eax,al
    2540:	01 d0                	add    eax,edx
    2542:	83 f8 13             	cmp    eax,0x13
    2545:	0f 94 c0             	sete   al
    2548:	5d                   	pop    rbp
    2549:	c3                   	ret    

000000000000254a <f518159>:
    254a:	f3 0f 1e fa          	endbr64 
    254e:	55                   	push   rbp
    254f:	48 89 e5             	mov    rbp,rsp
    2552:	89 f8                	mov    eax,edi
    2554:	88 45 fc             	mov    BYTE PTR [rbp-0x4],al
    2557:	0f be 45 fc          	movsx  eax,BYTE PTR [rbp-0x4]
    255b:	c1 e0 04             	shl    eax,0x4
    255e:	0f b6 d0             	movzx  edx,al
    2561:	0f b6 45 fc          	movzx  eax,BYTE PTR [rbp-0x4]
    2565:	c0 f8 04             	sar    al,0x4
    2568:	0f be c0             	movsx  eax,al
    256b:	01 d0                	add    eax,edx
    256d:	3d b6 00 00 00       	cmp    eax,0xb6
    2572:	0f 94 c0             	sete   al
    2575:	5d                   	pop    rbp
    2576:	c3                   	ret    

0000000000002577 <f1762925>:
    2577:	f3 0f 1e fa          	endbr64 
    257b:	55                   	push   rbp
    257c:	48 89 e5             	mov    rbp,rsp
    257f:	89 f8                	mov    eax,edi
    2581:	88 45 fc             	mov    BYTE PTR [rbp-0x4],al
    2584:	0f be 45 fc          	movsx  eax,BYTE PTR [rbp-0x4]
    2588:	c1 e0 04             	shl    eax,0x4
    258b:	0f b6 d0             	movzx  edx,al
    258e:	0f b6 45 fc          	movzx  eax,BYTE PTR [rbp-0x4]
    2592:	c0 f8 04             	sar    al,0x4
    2595:	0f be c0             	movsx  eax,al
    2598:	01 d0                	add    eax,edx
    259a:	83 f8 33             	cmp    eax,0x33
    259d:	0f 94 c0             	sete   al
    25a0:	5d                   	pop    rbp
    25a1:	c3                   	ret    

00000000000025a2 <f6594036>:
    25a2:	f3 0f 1e fa          	endbr64 
    25a6:	55                   	push   rbp
    25a7:	48 89 e5             	mov    rbp,rsp
    25aa:	89 f8                	mov    eax,edi
    25ac:	88 45 fc             	mov    BYTE PTR [rbp-0x4],al
    25af:	0f be 45 fc          	movsx  eax,BYTE PTR [rbp-0x4]
    25b3:	c1 e0 04             	shl    eax,0x4
    25b6:	0f b6 d0             	movzx  edx,al
    25b9:	0f b6 45 fc          	movzx  eax,BYTE PTR [rbp-0x4]
    25bd:	c0 f8 04             	sar    al,0x4
    25c0:	0f be c0             	movsx  eax,al
    25c3:	01 d0                	add    eax,edx
    25c5:	3d f5 00 00 00       	cmp    eax,0xf5
    25ca:	0f 94 c0             	sete   al
    25cd:	5d                   	pop    rbp
    25ce:	c3                   	ret    

00000000000025cf <f4698560>:
    25cf:	f3 0f 1e fa          	endbr64 
    25d3:	55                   	push   rbp
    25d4:	48 89 e5             	mov    rbp,rsp
    25d7:	89 f8                	mov    eax,edi
    25d9:	88 45 fc             	mov    BYTE PTR [rbp-0x4],al
    25dc:	0f be 45 fc          	movsx  eax,BYTE PTR [rbp-0x4]
    25e0:	c1 e0 04             	shl    eax,0x4
    25e3:	0f b6 d0             	movzx  edx,al
    25e6:	0f b6 45 fc          	movzx  eax,BYTE PTR [rbp-0x4]
    25ea:	c0 f8 04             	sar    al,0x4
    25ed:	0f be c0             	movsx  eax,al
    25f0:	01 d0                	add    eax,edx
    25f2:	83 f8 43             	cmp    eax,0x43
    25f5:	0f 94 c0             	sete   al
    25f8:	5d                   	pop    rbp
    25f9:	c3                   	ret    

00000000000025fa <f51135>:
    25fa:	f3 0f 1e fa          	endbr64 
    25fe:	55                   	push   rbp
    25ff:	48 89 e5             	mov    rbp,rsp
    2602:	89 f8                	mov    eax,edi
    2604:	88 45 fc             	mov    BYTE PTR [rbp-0x4],al
    2607:	0f be 45 fc          	movsx  eax,BYTE PTR [rbp-0x4]
    260b:	c1 e0 04             	shl    eax,0x4
    260e:	0f b6 d0             	movzx  edx,al
    2611:	0f b6 45 fc          	movzx  eax,BYTE PTR [rbp-0x4]
    2615:	c0 f8 04             	sar    al,0x4
    2618:	0f be c0             	movsx  eax,al
    261b:	01 d0                	add    eax,edx
    261d:	3d e6 00 00 00       	cmp    eax,0xe6
    2622:	0f 94 c0             	sete   al
    2625:	5d                   	pop    rbp
    2626:	c3                   	ret    

0000000000002627 <f2844159>:
    2627:	f3 0f 1e fa          	endbr64 
    262b:	55                   	push   rbp
    262c:	48 89 e5             	mov    rbp,rsp
    262f:	89 f8                	mov    eax,edi
    2631:	88 45 fc             	mov    BYTE PTR [rbp-0x4],al
    2634:	0f be 45 fc          	movsx  eax,BYTE PTR [rbp-0x4]
    2638:	c1 e0 04             	shl    eax,0x4
    263b:	0f b6 d0             	movzx  edx,al
    263e:	0f b6 45 fc          	movzx  eax,BYTE PTR [rbp-0x4]
    2642:	c0 f8 04             	sar    al,0x4
    2645:	0f be c0             	movsx  eax,al
    2648:	01 d0                	add    eax,edx
    264a:	3d 93 00 00 00       	cmp    eax,0x93
    264f:	0f 94 c0             	sete   al
    2652:	5d                   	pop    rbp
    2653:	c3                   	ret    

0000000000002654 <f5858457>:
    2654:	f3 0f 1e fa          	endbr64 
    2658:	55                   	push   rbp
    2659:	48 89 e5             	mov    rbp,rsp
    265c:	89 f8                	mov    eax,edi
    265e:	88 45 fc             	mov    BYTE PTR [rbp-0x4],al
    2661:	0f be 45 fc          	movsx  eax,BYTE PTR [rbp-0x4]
    2665:	c1 e0 04             	shl    eax,0x4
    2668:	0f b6 d0             	movzx  edx,al
    266b:	0f b6 45 fc          	movzx  eax,BYTE PTR [rbp-0x4]
    266f:	c0 f8 04             	sar    al,0x4
    2672:	0f be c0             	movsx  eax,al
    2675:	01 d0                	add    eax,edx
    2677:	83 f8 27             	cmp    eax,0x27
    267a:	0f 94 c0             	sete   al
    267d:	5d                   	pop    rbp
    267e:	c3                   	ret    

000000000000267f <f2731283>:
    267f:	f3 0f 1e fa          	endbr64 
    2683:	55                   	push   rbp
    2684:	48 89 e5             	mov    rbp,rsp
    2687:	89 f8                	mov    eax,edi
    2689:	88 45 fc             	mov    BYTE PTR [rbp-0x4],al
    268c:	0f be 45 fc          	movsx  eax,BYTE PTR [rbp-0x4]
    2690:	c1 e0 04             	shl    eax,0x4
    2693:	0f b6 d0             	movzx  edx,al
    2696:	0f b6 45 fc          	movzx  eax,BYTE PTR [rbp-0x4]
    269a:	c0 f8 04             	sar    al,0x4
    269d:	0f be c0             	movsx  eax,al
    26a0:	01 d0                	add    eax,edx
    26a2:	3d f5 00 00 00       	cmp    eax,0xf5
    26a7:	0f 94 c0             	sete   al
    26aa:	5d                   	pop    rbp
    26ab:	c3                   	ret    

00000000000026ac <f7538802>:
    26ac:	f3 0f 1e fa          	endbr64 
    26b0:	55                   	push   rbp
    26b1:	48 89 e5             	mov    rbp,rsp
    26b4:	89 f8                	mov    eax,edi
    26b6:	88 45 fc             	mov    BYTE PTR [rbp-0x4],al
    26b9:	0f be 45 fc          	movsx  eax,BYTE PTR [rbp-0x4]
    26bd:	c1 e0 04             	shl    eax,0x4
    26c0:	0f b6 d0             	movzx  edx,al
    26c3:	0f b6 45 fc          	movzx  eax,BYTE PTR [rbp-0x4]
    26c7:	c0 f8 04             	sar    al,0x4
    26ca:	0f be c0             	movsx  eax,al
    26cd:	01 d0                	add    eax,edx
    26cf:	83 f8 03             	cmp    eax,0x3
    26d2:	0f 94 c0             	sete   al
    26d5:	5d                   	pop    rbp
    26d6:	c3                   	ret    

00000000000026d7 <f3273483>:
    26d7:	f3 0f 1e fa          	endbr64 
    26db:	55                   	push   rbp
    26dc:	48 89 e5             	mov    rbp,rsp
    26df:	89 f8                	mov    eax,edi
    26e1:	88 45 fc             	mov    BYTE PTR [rbp-0x4],al
    26e4:	0f be 45 fc          	movsx  eax,BYTE PTR [rbp-0x4]
    26e8:	c1 e0 04             	shl    eax,0x4
    26eb:	0f b6 d0             	movzx  edx,al
    26ee:	0f b6 45 fc          	movzx  eax,BYTE PTR [rbp-0x4]
    26f2:	c0 f8 04             	sar    al,0x4
    26f5:	0f be c0             	movsx  eax,al
    26f8:	01 d0                	add    eax,edx
    26fa:	83 f8 27             	cmp    eax,0x27
    26fd:	0f 94 c0             	sete   al
    2700:	5d                   	pop    rbp
    2701:	c3                   	ret    

0000000000002702 <f6794679>:
    2702:	f3 0f 1e fa          	endbr64 
    2706:	55                   	push   rbp
    2707:	48 89 e5             	mov    rbp,rsp
    270a:	89 f8                	mov    eax,edi
    270c:	88 45 fc             	mov    BYTE PTR [rbp-0x4],al
    270f:	0f be 45 fc          	movsx  eax,BYTE PTR [rbp-0x4]
    2713:	c1 e0 04             	shl    eax,0x4
    2716:	0f b6 d0             	movzx  edx,al
    2719:	0f b6 45 fc          	movzx  eax,BYTE PTR [rbp-0x4]
    271d:	c0 f8 04             	sar    al,0x4
    2720:	0f be c0             	movsx  eax,al
    2723:	01 d0                	add    eax,edx
    2725:	3d f5 00 00 00       	cmp    eax,0xf5
    272a:	0f 94 c0             	sete   al
    272d:	5d                   	pop    rbp
    272e:	c3                   	ret    

000000000000272f <f9560420>:
    272f:	f3 0f 1e fa          	endbr64 
    2733:	55                   	push   rbp
    2734:	48 89 e5             	mov    rbp,rsp
    2737:	89 f8                	mov    eax,edi
    2739:	88 45 fc             	mov    BYTE PTR [rbp-0x4],al
    273c:	0f be 45 fc          	movsx  eax,BYTE PTR [rbp-0x4]
    2740:	c1 e0 04             	shl    eax,0x4
    2743:	0f b6 d0             	movzx  edx,al
    2746:	0f b6 45 fc          	movzx  eax,BYTE PTR [rbp-0x4]
    274a:	c0 f8 04             	sar    al,0x4
    274d:	0f be c0             	movsx  eax,al
    2750:	01 d0                	add    eax,edx
    2752:	3d a5 00 00 00       	cmp    eax,0xa5
    2757:	0f 94 c0             	sete   al
    275a:	5d                   	pop    rbp
    275b:	c3                   	ret    

000000000000275c <f3026215>:
    275c:	f3 0f 1e fa          	endbr64 
    2760:	55                   	push   rbp
    2761:	48 89 e5             	mov    rbp,rsp
    2764:	89 f8                	mov    eax,edi
    2766:	88 45 fc             	mov    BYTE PTR [rbp-0x4],al
    2769:	0f be 45 fc          	movsx  eax,BYTE PTR [rbp-0x4]
    276d:	c1 e0 04             	shl    eax,0x4
    2770:	0f b6 d0             	movzx  edx,al
    2773:	0f b6 45 fc          	movzx  eax,BYTE PTR [rbp-0x4]
    2777:	c0 f8 04             	sar    al,0x4
    277a:	0f be c0             	movsx  eax,al
    277d:	01 d0                	add    eax,edx
    277f:	83 f8 33             	cmp    eax,0x33
    2782:	0f 94 c0             	sete   al
    2785:	5d                   	pop    rbp
    2786:	c3                   	ret    

0000000000002787 <f4703035>:
    2787:	f3 0f 1e fa          	endbr64 
    278b:	55                   	push   rbp
    278c:	48 89 e5             	mov    rbp,rsp
    278f:	89 f8                	mov    eax,edi
    2791:	88 45 fc             	mov    BYTE PTR [rbp-0x4],al
    2794:	0f be 45 fc          	movsx  eax,BYTE PTR [rbp-0x4]
    2798:	c1 e0 04             	shl    eax,0x4
    279b:	0f b6 d0             	movzx  edx,al
    279e:	0f b6 45 fc          	movzx  eax,BYTE PTR [rbp-0x4]
    27a2:	c0 f8 04             	sar    al,0x4
    27a5:	0f be c0             	movsx  eax,al
    27a8:	01 d0                	add    eax,edx
    27aa:	3d f5 00 00 00       	cmp    eax,0xf5
    27af:	0f 94 c0             	sete   al
    27b2:	5d                   	pop    rbp
    27b3:	c3                   	ret    

00000000000027b4 <f7480532>:
    27b4:	f3 0f 1e fa          	endbr64 
    27b8:	55                   	push   rbp
    27b9:	48 89 e5             	mov    rbp,rsp
    27bc:	89 f8                	mov    eax,edi
    27be:	88 45 fc             	mov    BYTE PTR [rbp-0x4],al
    27c1:	0f be 45 fc          	movsx  eax,BYTE PTR [rbp-0x4]
    27c5:	c1 e0 04             	shl    eax,0x4
    27c8:	0f b6 d0             	movzx  edx,al
    27cb:	0f b6 45 fc          	movzx  eax,BYTE PTR [rbp-0x4]
    27cf:	c0 f8 04             	sar    al,0x4
    27d2:	0f be c0             	movsx  eax,al
    27d5:	01 d0                	add    eax,edx
    27d7:	83 f8 47             	cmp    eax,0x47
    27da:	0f 94 c0             	sete   al
    27dd:	5d                   	pop    rbp
    27de:	c3                   	ret    

00000000000027df <f8746401>:
    27df:	f3 0f 1e fa          	endbr64 
    27e3:	55                   	push   rbp
    27e4:	48 89 e5             	mov    rbp,rsp
    27e7:	89 f8                	mov    eax,edi
    27e9:	88 45 fc             	mov    BYTE PTR [rbp-0x4],al
    27ec:	0f be 45 fc          	movsx  eax,BYTE PTR [rbp-0x4]
    27f0:	c1 e0 04             	shl    eax,0x4
    27f3:	0f b6 d0             	movzx  edx,al
    27f6:	0f b6 45 fc          	movzx  eax,BYTE PTR [rbp-0x4]
    27fa:	c0 f8 04             	sar    al,0x4
    27fd:	0f be c0             	movsx  eax,al
    2800:	01 d0                	add    eax,edx
    2802:	83 f8 03             	cmp    eax,0x3
    2805:	0f 94 c0             	sete   al
    2808:	5d                   	pop    rbp
    2809:	c3                   	ret    

000000000000280a <f1223611>:
    280a:	f3 0f 1e fa          	endbr64 
    280e:	55                   	push   rbp
    280f:	48 89 e5             	mov    rbp,rsp
    2812:	89 f8                	mov    eax,edi
    2814:	88 45 fc             	mov    BYTE PTR [rbp-0x4],al
    2817:	0f be 45 fc          	movsx  eax,BYTE PTR [rbp-0x4]
    281b:	c1 e0 04             	shl    eax,0x4
    281e:	0f b6 d0             	movzx  edx,al
    2821:	0f b6 45 fc          	movzx  eax,BYTE PTR [rbp-0x4]
    2825:	c0 f8 04             	sar    al,0x4
    2828:	0f be c0             	movsx  eax,al
    282b:	01 d0                	add    eax,edx
    282d:	3d f5 00 00 00       	cmp    eax,0xf5
    2832:	0f 94 c0             	sete   al
    2835:	5d                   	pop    rbp
    2836:	c3                   	ret    

0000000000002837 <f9386630>:
    2837:	f3 0f 1e fa          	endbr64 
    283b:	55                   	push   rbp
    283c:	48 89 e5             	mov    rbp,rsp
    283f:	89 f8                	mov    eax,edi
    2841:	88 45 fc             	mov    BYTE PTR [rbp-0x4],al
    2844:	0f be 45 fc          	movsx  eax,BYTE PTR [rbp-0x4]
    2848:	c1 e0 04             	shl    eax,0x4
    284b:	0f b6 d0             	movzx  edx,al
    284e:	0f b6 45 fc          	movzx  eax,BYTE PTR [rbp-0x4]
    2852:	c0 f8 04             	sar    al,0x4
    2855:	0f be c0             	movsx  eax,al
    2858:	01 d0                	add    eax,edx
    285a:	3d d6 00 00 00       	cmp    eax,0xd6
    285f:	0f 94 c0             	sete   al
    2862:	5d                   	pop    rbp
    2863:	c3                   	ret    

0000000000002864 <f7022724>:
    2864:	f3 0f 1e fa          	endbr64 
    2868:	55                   	push   rbp
    2869:	48 89 e5             	mov    rbp,rsp
    286c:	89 f8                	mov    eax,edi
    286e:	88 45 fc             	mov    BYTE PTR [rbp-0x4],al
    2871:	0f be 45 fc          	movsx  eax,BYTE PTR [rbp-0x4]
    2875:	c1 e0 04             	shl    eax,0x4
    2878:	0f b6 d0             	movzx  edx,al
    287b:	0f b6 45 fc          	movzx  eax,BYTE PTR [rbp-0x4]
    287f:	c0 f8 04             	sar    al,0x4
    2882:	0f be c0             	movsx  eax,al
    2885:	01 d0                	add    eax,edx
    2887:	83 f8 43             	cmp    eax,0x43
    288a:	0f 94 c0             	sete   al
    288d:	5d                   	pop    rbp
    288e:	c3                   	ret    

000000000000288f <f6626111>:
    288f:	f3 0f 1e fa          	endbr64 
    2893:	55                   	push   rbp
    2894:	48 89 e5             	mov    rbp,rsp
    2897:	89 f8                	mov    eax,edi
    2899:	88 45 fc             	mov    BYTE PTR [rbp-0x4],al
    289c:	0f be 45 fc          	movsx  eax,BYTE PTR [rbp-0x4]
    28a0:	c1 e0 04             	shl    eax,0x4
    28a3:	0f b6 d0             	movzx  edx,al
    28a6:	0f b6 45 fc          	movzx  eax,BYTE PTR [rbp-0x4]
    28aa:	c0 f8 04             	sar    al,0x4
    28ad:	0f be c0             	movsx  eax,al
    28b0:	01 d0                	add    eax,edx
    28b2:	3d b6 00 00 00       	cmp    eax,0xb6
    28b7:	0f 94 c0             	sete   al
    28ba:	5d                   	pop    rbp
    28bb:	c3                   	ret    

00000000000028bc <f9521409>:
    28bc:	f3 0f 1e fa          	endbr64 
    28c0:	55                   	push   rbp
    28c1:	48 89 e5             	mov    rbp,rsp
    28c4:	89 f8                	mov    eax,edi
    28c6:	88 45 fc             	mov    BYTE PTR [rbp-0x4],al
    28c9:	0f be 45 fc          	movsx  eax,BYTE PTR [rbp-0x4]
    28cd:	c1 e0 04             	shl    eax,0x4
    28d0:	0f b6 d0             	movzx  edx,al
    28d3:	0f b6 45 fc          	movzx  eax,BYTE PTR [rbp-0x4]
    28d7:	c0 f8 04             	sar    al,0x4
    28da:	0f be c0             	movsx  eax,al
    28dd:	01 d0                	add    eax,edx
    28df:	83 f8 33             	cmp    eax,0x33
    28e2:	0f 94 c0             	sete   al
    28e5:	5d                   	pop    rbp
    28e6:	c3                   	ret    

00000000000028e7 <f6147350>:
    28e7:	f3 0f 1e fa          	endbr64 
    28eb:	55                   	push   rbp
    28ec:	48 89 e5             	mov    rbp,rsp
    28ef:	89 f8                	mov    eax,edi
    28f1:	88 45 fc             	mov    BYTE PTR [rbp-0x4],al
    28f4:	0f be 45 fc          	movsx  eax,BYTE PTR [rbp-0x4]
    28f8:	c1 e0 04             	shl    eax,0x4
    28fb:	0f b6 d0             	movzx  edx,al
    28fe:	0f b6 45 fc          	movzx  eax,BYTE PTR [rbp-0x4]
    2902:	c0 f8 04             	sar    al,0x4
    2905:	0f be c0             	movsx  eax,al
    2908:	01 d0                	add    eax,edx
    290a:	3d f5 00 00 00       	cmp    eax,0xf5
    290f:	0f 94 c0             	sete   al
    2912:	5d                   	pop    rbp
    2913:	c3                   	ret    

0000000000002914 <f3296195>:
    2914:	f3 0f 1e fa          	endbr64 
    2918:	55                   	push   rbp
    2919:	48 89 e5             	mov    rbp,rsp
    291c:	89 f8                	mov    eax,edi
    291e:	88 45 fc             	mov    BYTE PTR [rbp-0x4],al
    2921:	0f be 45 fc          	movsx  eax,BYTE PTR [rbp-0x4]
    2925:	c1 e0 04             	shl    eax,0x4
    2928:	0f b6 d0             	movzx  edx,al
    292b:	0f b6 45 fc          	movzx  eax,BYTE PTR [rbp-0x4]
    292f:	c0 f8 04             	sar    al,0x4
    2932:	0f be c0             	movsx  eax,al
    2935:	01 d0                	add    eax,edx
    2937:	3d 97 00 00 00       	cmp    eax,0x97
    293c:	0f 94 c0             	sete   al
    293f:	5d                   	pop    rbp
    2940:	c3                   	ret    

0000000000002941 <f5547465>:
    2941:	f3 0f 1e fa          	endbr64 
    2945:	55                   	push   rbp
    2946:	48 89 e5             	mov    rbp,rsp
    2949:	89 f8                	mov    eax,edi
    294b:	88 45 fc             	mov    BYTE PTR [rbp-0x4],al
    294e:	0f be 45 fc          	movsx  eax,BYTE PTR [rbp-0x4]
    2952:	c1 e0 04             	shl    eax,0x4
    2955:	0f b6 d0             	movzx  edx,al
    2958:	0f b6 45 fc          	movzx  eax,BYTE PTR [rbp-0x4]
    295c:	c0 f8 04             	sar    al,0x4
    295f:	0f be c0             	movsx  eax,al
    2962:	01 d0                	add    eax,edx
    2964:	83 f8 03             	cmp    eax,0x3
    2967:	0f 94 c0             	sete   al
    296a:	5d                   	pop    rbp
    296b:	c3                   	ret    

000000000000296c <f3950848>:
    296c:	f3 0f 1e fa          	endbr64 
    2970:	55                   	push   rbp
    2971:	48 89 e5             	mov    rbp,rsp
    2974:	89 f8                	mov    eax,edi
    2976:	88 45 fc             	mov    BYTE PTR [rbp-0x4],al
    2979:	0f be 45 fc          	movsx  eax,BYTE PTR [rbp-0x4]
    297d:	c1 e0 04             	shl    eax,0x4
    2980:	0f b6 d0             	movzx  edx,al
    2983:	0f b6 45 fc          	movzx  eax,BYTE PTR [rbp-0x4]
    2987:	c0 f8 04             	sar    al,0x4
    298a:	0f be c0             	movsx  eax,al
    298d:	01 d0                	add    eax,edx
    298f:	83 f8 57             	cmp    eax,0x57
    2992:	0f 94 c0             	sete   al
    2995:	5d                   	pop    rbp
    2996:	c3                   	ret    

0000000000002997 <f8974270>:
    2997:	f3 0f 1e fa          	endbr64 
    299b:	55                   	push   rbp
    299c:	48 89 e5             	mov    rbp,rsp
    299f:	89 f8                	mov    eax,edi
    29a1:	88 45 fc             	mov    BYTE PTR [rbp-0x4],al
    29a4:	0f be 45 fc          	movsx  eax,BYTE PTR [rbp-0x4]
    29a8:	c1 e0 04             	shl    eax,0x4
    29ab:	0f b6 d0             	movzx  edx,al
    29ae:	0f b6 45 fc          	movzx  eax,BYTE PTR [rbp-0x4]
    29b2:	c0 f8 04             	sar    al,0x4
    29b5:	0f be c0             	movsx  eax,al
    29b8:	01 d0                	add    eax,edx
    29ba:	83 f8 27             	cmp    eax,0x27
    29bd:	0f 94 c0             	sete   al
    29c0:	5d                   	pop    rbp
    29c1:	c3                   	ret    

00000000000029c2 <f3371760>:
    29c2:	f3 0f 1e fa          	endbr64 
    29c6:	55                   	push   rbp
    29c7:	48 89 e5             	mov    rbp,rsp
    29ca:	89 f8                	mov    eax,edi
    29cc:	88 45 fc             	mov    BYTE PTR [rbp-0x4],al
    29cf:	0f be 45 fc          	movsx  eax,BYTE PTR [rbp-0x4]
    29d3:	c1 e0 04             	shl    eax,0x4
    29d6:	0f b6 d0             	movzx  edx,al
    29d9:	0f b6 45 fc          	movzx  eax,BYTE PTR [rbp-0x4]
    29dd:	c0 f8 04             	sar    al,0x4
    29e0:	0f be c0             	movsx  eax,al
    29e3:	01 d0                	add    eax,edx
    29e5:	3d f5 00 00 00       	cmp    eax,0xf5
    29ea:	0f 94 c0             	sete   al
    29ed:	5d                   	pop    rbp
    29ee:	c3                   	ret    

00000000000029ef <f9565003>:
    29ef:	f3 0f 1e fa          	endbr64 
    29f3:	55                   	push   rbp
    29f4:	48 89 e5             	mov    rbp,rsp
    29f7:	89 f8                	mov    eax,edi
    29f9:	88 45 fc             	mov    BYTE PTR [rbp-0x4],al
    29fc:	0f be 45 fc          	movsx  eax,BYTE PTR [rbp-0x4]
    2a00:	c1 e0 04             	shl    eax,0x4
    2a03:	0f b6 d0             	movzx  edx,al
    2a06:	0f b6 45 fc          	movzx  eax,BYTE PTR [rbp-0x4]
    2a0a:	c0 f8 04             	sar    al,0x4
    2a0d:	0f be c0             	movsx  eax,al
    2a10:	01 d0                	add    eax,edx
    2a12:	3d c6 00 00 00       	cmp    eax,0xc6
    2a17:	0f 94 c0             	sete   al
    2a1a:	5d                   	pop    rbp
    2a1b:	c3                   	ret    

0000000000002a1c <f3189640>:
    2a1c:	f3 0f 1e fa          	endbr64 
    2a20:	55                   	push   rbp
    2a21:	48 89 e5             	mov    rbp,rsp
    2a24:	89 f8                	mov    eax,edi
    2a26:	88 45 fc             	mov    BYTE PTR [rbp-0x4],al
    2a29:	0f be 45 fc          	movsx  eax,BYTE PTR [rbp-0x4]
    2a2d:	c1 e0 04             	shl    eax,0x4
    2a30:	0f b6 d0             	movzx  edx,al
    2a33:	0f b6 45 fc          	movzx  eax,BYTE PTR [rbp-0x4]
    2a37:	c0 f8 04             	sar    al,0x4
    2a3a:	0f be c0             	movsx  eax,al
    2a3d:	01 d0                	add    eax,edx
    2a3f:	83 f8 13             	cmp    eax,0x13
    2a42:	0f 94 c0             	sete   al
    2a45:	5d                   	pop    rbp
    2a46:	c3                   	ret    

0000000000002a47 <f3873488>:
    2a47:	f3 0f 1e fa          	endbr64 
    2a4b:	55                   	push   rbp
    2a4c:	48 89 e5             	mov    rbp,rsp
    2a4f:	89 f8                	mov    eax,edi
    2a51:	88 45 fc             	mov    BYTE PTR [rbp-0x4],al
    2a54:	0f be 45 fc          	movsx  eax,BYTE PTR [rbp-0x4]
    2a58:	c1 e0 04             	shl    eax,0x4
    2a5b:	0f b6 d0             	movzx  edx,al
    2a5e:	0f b6 45 fc          	movzx  eax,BYTE PTR [rbp-0x4]
    2a62:	c0 f8 04             	sar    al,0x4
    2a65:	0f be c0             	movsx  eax,al
    2a68:	01 d0                	add    eax,edx
    2a6a:	83 f8 66             	cmp    eax,0x66
    2a6d:	0f 94 c0             	sete   al
    2a70:	5d                   	pop    rbp
    2a71:	c3                   	ret    

0000000000002a72 <f9392038>:
    2a72:	f3 0f 1e fa          	endbr64 
    2a76:	55                   	push   rbp
    2a77:	48 89 e5             	mov    rbp,rsp
    2a7a:	89 f8                	mov    eax,edi
    2a7c:	88 45 fc             	mov    BYTE PTR [rbp-0x4],al
    2a7f:	0f be 45 fc          	movsx  eax,BYTE PTR [rbp-0x4]
    2a83:	c1 e0 04             	shl    eax,0x4
    2a86:	0f b6 d0             	movzx  edx,al
    2a89:	0f b6 45 fc          	movzx  eax,BYTE PTR [rbp-0x4]
    2a8d:	c0 f8 04             	sar    al,0x4
    2a90:	0f be c0             	movsx  eax,al
    2a93:	01 d0                	add    eax,edx
    2a95:	83 f8 33             	cmp    eax,0x33
    2a98:	0f 94 c0             	sete   al
    2a9b:	5d                   	pop    rbp
    2a9c:	c3                   	ret    

0000000000002a9d <f7515979>:
    2a9d:	f3 0f 1e fa          	endbr64 
    2aa1:	55                   	push   rbp
    2aa2:	48 89 e5             	mov    rbp,rsp
    2aa5:	89 f8                	mov    eax,edi
    2aa7:	88 45 fc             	mov    BYTE PTR [rbp-0x4],al
    2aaa:	0f be 45 fc          	movsx  eax,BYTE PTR [rbp-0x4]
    2aae:	c1 e0 04             	shl    eax,0x4
    2ab1:	0f b6 d0             	movzx  edx,al
    2ab4:	0f b6 45 fc          	movzx  eax,BYTE PTR [rbp-0x4]
    2ab8:	c0 f8 04             	sar    al,0x4
    2abb:	0f be c0             	movsx  eax,al
    2abe:	01 d0                	add    eax,edx
    2ac0:	3d f5 00 00 00       	cmp    eax,0xf5
    2ac5:	0f 94 c0             	sete   al
    2ac8:	5d                   	pop    rbp
    2ac9:	c3                   	ret    

0000000000002aca <f2754289>:
    2aca:	f3 0f 1e fa          	endbr64 
    2ace:	55                   	push   rbp
    2acf:	48 89 e5             	mov    rbp,rsp
    2ad2:	89 f8                	mov    eax,edi
    2ad4:	88 45 fc             	mov    BYTE PTR [rbp-0x4],al
    2ad7:	0f be 45 fc          	movsx  eax,BYTE PTR [rbp-0x4]
    2adb:	c1 e0 04             	shl    eax,0x4
    2ade:	0f b6 d0             	movzx  edx,al
    2ae1:	0f b6 45 fc          	movzx  eax,BYTE PTR [rbp-0x4]
    2ae5:	c0 f8 04             	sar    al,0x4
    2ae8:	0f be c0             	movsx  eax,al
    2aeb:	01 d0                	add    eax,edx
    2aed:	3d d6 00 00 00       	cmp    eax,0xd6
    2af2:	0f 94 c0             	sete   al
    2af5:	5d                   	pop    rbp
    2af6:	c3                   	ret    

0000000000002af7 <f2916766>:
    2af7:	f3 0f 1e fa          	endbr64 
    2afb:	55                   	push   rbp
    2afc:	48 89 e5             	mov    rbp,rsp
    2aff:	89 f8                	mov    eax,edi
    2b01:	88 45 fc             	mov    BYTE PTR [rbp-0x4],al
    2b04:	0f be 45 fc          	movsx  eax,BYTE PTR [rbp-0x4]
    2b08:	c1 e0 04             	shl    eax,0x4
    2b0b:	0f b6 d0             	movzx  edx,al
    2b0e:	0f b6 45 fc          	movzx  eax,BYTE PTR [rbp-0x4]
    2b12:	c0 f8 04             	sar    al,0x4
    2b15:	0f be c0             	movsx  eax,al
    2b18:	01 d0                	add    eax,edx
    2b1a:	83 f8 57             	cmp    eax,0x57
    2b1d:	0f 94 c0             	sete   al
    2b20:	5d                   	pop    rbp
    2b21:	c3                   	ret    

0000000000002b22 <f3574708>:
    2b22:	f3 0f 1e fa          	endbr64 
    2b26:	55                   	push   rbp
    2b27:	48 89 e5             	mov    rbp,rsp
    2b2a:	89 f8                	mov    eax,edi
    2b2c:	88 45 fc             	mov    BYTE PTR [rbp-0x4],al
    2b2f:	0f be 45 fc          	movsx  eax,BYTE PTR [rbp-0x4]
    2b33:	c1 e0 04             	shl    eax,0x4
    2b36:	0f b6 d0             	movzx  edx,al
    2b39:	0f b6 45 fc          	movzx  eax,BYTE PTR [rbp-0x4]
    2b3d:	c0 f8 04             	sar    al,0x4
    2b40:	0f be c0             	movsx  eax,al
    2b43:	01 d0                	add    eax,edx
    2b45:	83 f8 36             	cmp    eax,0x36
    2b48:	0f 94 c0             	sete   al
    2b4b:	5d                   	pop    rbp
    2b4c:	c3                   	ret    

0000000000002b4d <f5319150>:
    2b4d:	f3 0f 1e fa          	endbr64 
    2b51:	55                   	push   rbp
    2b52:	48 89 e5             	mov    rbp,rsp
    2b55:	89 f8                	mov    eax,edi
    2b57:	88 45 fc             	mov    BYTE PTR [rbp-0x4],al
    2b5a:	0f be 45 fc          	movsx  eax,BYTE PTR [rbp-0x4]
    2b5e:	c1 e0 04             	shl    eax,0x4
    2b61:	0f b6 d0             	movzx  edx,al
    2b64:	0f b6 45 fc          	movzx  eax,BYTE PTR [rbp-0x4]
    2b68:	c0 f8 04             	sar    al,0x4
    2b6b:	0f be c0             	movsx  eax,al
    2b6e:	01 d0                	add    eax,edx
    2b70:	3d 86 00 00 00       	cmp    eax,0x86
    2b75:	0f 94 c0             	sete   al
    2b78:	5d                   	pop    rbp
    2b79:	c3                   	ret    

0000000000002b7a <f10076>:
    2b7a:	f3 0f 1e fa          	endbr64 
    2b7e:	55                   	push   rbp
    2b7f:	48 89 e5             	mov    rbp,rsp
    2b82:	89 f8                	mov    eax,edi
    2b84:	88 45 fc             	mov    BYTE PTR [rbp-0x4],al
    2b87:	0f be 45 fc          	movsx  eax,BYTE PTR [rbp-0x4]
    2b8b:	c1 e0 04             	shl    eax,0x4
    2b8e:	0f b6 d0             	movzx  edx,al
    2b91:	0f b6 45 fc          	movzx  eax,BYTE PTR [rbp-0x4]
    2b95:	c0 f8 04             	sar    al,0x4
    2b98:	0f be c0             	movsx  eax,al
    2b9b:	01 d0                	add    eax,edx
    2b9d:	3d f5 00 00 00       	cmp    eax,0xf5
    2ba2:	0f 94 c0             	sete   al
    2ba5:	5d                   	pop    rbp
    2ba6:	c3                   	ret    

0000000000002ba7 <f7175572>:
    2ba7:	f3 0f 1e fa          	endbr64 
    2bab:	55                   	push   rbp
    2bac:	48 89 e5             	mov    rbp,rsp
    2baf:	89 f8                	mov    eax,edi
    2bb1:	88 45 fc             	mov    BYTE PTR [rbp-0x4],al
    2bb4:	0f be 45 fc          	movsx  eax,BYTE PTR [rbp-0x4]
    2bb8:	c1 e0 04             	shl    eax,0x4
    2bbb:	0f b6 d0             	movzx  edx,al
    2bbe:	0f b6 45 fc          	movzx  eax,BYTE PTR [rbp-0x4]
    2bc2:	c0 f8 04             	sar    al,0x4
    2bc5:	0f be c0             	movsx  eax,al
    2bc8:	01 d0                	add    eax,edx
    2bca:	83 f8 56             	cmp    eax,0x56
    2bcd:	0f 94 c0             	sete   al
    2bd0:	5d                   	pop    rbp
    2bd1:	c3                   	ret    

0000000000002bd2 <f2614917>:
    2bd2:	f3 0f 1e fa          	endbr64 
    2bd6:	55                   	push   rbp
    2bd7:	48 89 e5             	mov    rbp,rsp
    2bda:	89 f8                	mov    eax,edi
    2bdc:	88 45 fc             	mov    BYTE PTR [rbp-0x4],al
    2bdf:	0f be 45 fc          	movsx  eax,BYTE PTR [rbp-0x4]
    2be3:	c1 e0 04             	shl    eax,0x4
    2be6:	0f b6 d0             	movzx  edx,al
    2be9:	0f b6 45 fc          	movzx  eax,BYTE PTR [rbp-0x4]
    2bed:	c0 f8 04             	sar    al,0x4
    2bf0:	0f be c0             	movsx  eax,al
    2bf3:	01 d0                	add    eax,edx
    2bf5:	83 f8 43             	cmp    eax,0x43
    2bf8:	0f 94 c0             	sete   al
    2bfb:	5d                   	pop    rbp
    2bfc:	c3                   	ret    

0000000000002bfd <f1787361>:
    2bfd:	f3 0f 1e fa          	endbr64 
    2c01:	55                   	push   rbp
    2c02:	48 89 e5             	mov    rbp,rsp
    2c05:	89 f8                	mov    eax,edi
    2c07:	88 45 fc             	mov    BYTE PTR [rbp-0x4],al
    2c0a:	0f be 45 fc          	movsx  eax,BYTE PTR [rbp-0x4]
    2c0e:	c1 e0 04             	shl    eax,0x4
    2c11:	0f b6 d0             	movzx  edx,al
    2c14:	0f b6 45 fc          	movzx  eax,BYTE PTR [rbp-0x4]
    2c18:	c0 f8 04             	sar    al,0x4
    2c1b:	0f be c0             	movsx  eax,al
    2c1e:	01 d0                	add    eax,edx
    2c20:	83 f8 37             	cmp    eax,0x37
    2c23:	0f 94 c0             	sete   al
    2c26:	5d                   	pop    rbp
    2c27:	c3                   	ret    

0000000000002c28 <f4506152>:
    2c28:	f3 0f 1e fa          	endbr64 
    2c2c:	55                   	push   rbp
    2c2d:	48 89 e5             	mov    rbp,rsp
    2c30:	89 f8                	mov    eax,edi
    2c32:	88 45 fc             	mov    BYTE PTR [rbp-0x4],al
    2c35:	0f be 45 fc          	movsx  eax,BYTE PTR [rbp-0x4]
    2c39:	c1 e0 04             	shl    eax,0x4
    2c3c:	0f b6 d0             	movzx  edx,al
    2c3f:	0f b6 45 fc          	movzx  eax,BYTE PTR [rbp-0x4]
    2c43:	c0 f8 04             	sar    al,0x4
    2c46:	0f be c0             	movsx  eax,al
    2c49:	01 d0                	add    eax,edx
    2c4b:	83 f8 13             	cmp    eax,0x13
    2c4e:	0f 94 c0             	sete   al
    2c51:	5d                   	pop    rbp
    2c52:	c3                   	ret    

0000000000002c53 <f8769072>:
    2c53:	f3 0f 1e fa          	endbr64 
    2c57:	55                   	push   rbp
    2c58:	48 89 e5             	mov    rbp,rsp
    2c5b:	89 f8                	mov    eax,edi
    2c5d:	88 45 fc             	mov    BYTE PTR [rbp-0x4],al
    2c60:	0f be 45 fc          	movsx  eax,BYTE PTR [rbp-0x4]
    2c64:	c1 e0 04             	shl    eax,0x4
    2c67:	0f b6 d0             	movzx  edx,al
    2c6a:	0f b6 45 fc          	movzx  eax,BYTE PTR [rbp-0x4]
    2c6e:	c0 f8 04             	sar    al,0x4
    2c71:	0f be c0             	movsx  eax,al
    2c74:	01 d0                	add    eax,edx
    2c76:	83 f8 33             	cmp    eax,0x33
    2c79:	0f 94 c0             	sete   al
    2c7c:	5d                   	pop    rbp
    2c7d:	c3                   	ret    

0000000000002c7e <f7138486>:
    2c7e:	f3 0f 1e fa          	endbr64 
    2c82:	55                   	push   rbp
    2c83:	48 89 e5             	mov    rbp,rsp
    2c86:	89 f8                	mov    eax,edi
    2c88:	88 45 fc             	mov    BYTE PTR [rbp-0x4],al
    2c8b:	0f be 45 fc          	movsx  eax,BYTE PTR [rbp-0x4]
    2c8f:	c1 e0 04             	shl    eax,0x4
    2c92:	0f b6 d0             	movzx  edx,al
    2c95:	0f b6 45 fc          	movzx  eax,BYTE PTR [rbp-0x4]
    2c99:	c0 f8 04             	sar    al,0x4
    2c9c:	0f be c0             	movsx  eax,al
    2c9f:	01 d0                	add    eax,edx
    2ca1:	83 f8 27             	cmp    eax,0x27
    2ca4:	0f 94 c0             	sete   al
    2ca7:	5d                   	pop    rbp
    2ca8:	c3                   	ret    

0000000000002ca9 <f8239086>:
    2ca9:	f3 0f 1e fa          	endbr64 
    2cad:	55                   	push   rbp
    2cae:	48 89 e5             	mov    rbp,rsp
    2cb1:	89 f8                	mov    eax,edi
    2cb3:	88 45 fc             	mov    BYTE PTR [rbp-0x4],al
    2cb6:	0f be 45 fc          	movsx  eax,BYTE PTR [rbp-0x4]
    2cba:	c1 e0 04             	shl    eax,0x4
    2cbd:	0f b6 d0             	movzx  edx,al
    2cc0:	0f b6 45 fc          	movzx  eax,BYTE PTR [rbp-0x4]
    2cc4:	c0 f8 04             	sar    al,0x4
    2cc7:	0f be c0             	movsx  eax,al
    2cca:	01 d0                	add    eax,edx
    2ccc:	3d e2 00 00 00       	cmp    eax,0xe2
    2cd1:	0f 94 c0             	sete   al
    2cd4:	5d                   	pop    rbp
    2cd5:	c3                   	ret    

0000000000002cd6 <f4507173>:
    2cd6:	f3 0f 1e fa          	endbr64 
    2cda:	55                   	push   rbp
    2cdb:	48 89 e5             	mov    rbp,rsp
    2cde:	89 f8                	mov    eax,edi
    2ce0:	88 45 fc             	mov    BYTE PTR [rbp-0x4],al
    2ce3:	0f be 45 fc          	movsx  eax,BYTE PTR [rbp-0x4]
    2ce7:	c1 e0 04             	shl    eax,0x4
    2cea:	0f b6 d0             	movzx  edx,al
    2ced:	0f b6 45 fc          	movzx  eax,BYTE PTR [rbp-0x4]
    2cf1:	c0 f8 04             	sar    al,0x4
    2cf4:	0f be c0             	movsx  eax,al
    2cf7:	01 d0                	add    eax,edx
    2cf9:	83 f8 34             	cmp    eax,0x34
    2cfc:	0f 94 c0             	sete   al
    2cff:	5d                   	pop    rbp
    2d00:	c3                   	ret    

0000000000002d01 <f3890123>:
    2d01:	f3 0f 1e fa          	endbr64 
    2d05:	55                   	push   rbp
    2d06:	48 89 e5             	mov    rbp,rsp
    2d09:	89 f8                	mov    eax,edi
    2d0b:	88 45 fc             	mov    BYTE PTR [rbp-0x4],al
    2d0e:	0f be 45 fc          	movsx  eax,BYTE PTR [rbp-0x4]
    2d12:	c1 e0 04             	shl    eax,0x4
    2d15:	0f b6 d0             	movzx  edx,al
    2d18:	0f b6 45 fc          	movzx  eax,BYTE PTR [rbp-0x4]
    2d1c:	c0 f8 04             	sar    al,0x4
    2d1f:	0f be c0             	movsx  eax,al
    2d22:	01 d0                	add    eax,edx
    2d24:	83 f8 03             	cmp    eax,0x3
    2d27:	0f 94 c0             	sete   al
    2d2a:	5d                   	pop    rbp
    2d2b:	c3                   	ret    

0000000000002d2c <f5431205>:
    2d2c:	f3 0f 1e fa          	endbr64 
    2d30:	55                   	push   rbp
    2d31:	48 89 e5             	mov    rbp,rsp
    2d34:	89 f8                	mov    eax,edi
    2d36:	88 45 fc             	mov    BYTE PTR [rbp-0x4],al
    2d39:	0f be 45 fc          	movsx  eax,BYTE PTR [rbp-0x4]
    2d3d:	c1 e0 04             	shl    eax,0x4
    2d40:	0f b6 d0             	movzx  edx,al
    2d43:	0f b6 45 fc          	movzx  eax,BYTE PTR [rbp-0x4]
    2d47:	c0 f8 04             	sar    al,0x4
    2d4a:	0f be c0             	movsx  eax,al
    2d4d:	01 d0                	add    eax,edx
    2d4f:	3d e6 00 00 00       	cmp    eax,0xe6
    2d54:	0f 94 c0             	sete   al
    2d57:	5d                   	pop    rbp
    2d58:	c3                   	ret    

0000000000002d59 <f8149070>:
    2d59:	f3 0f 1e fa          	endbr64 
    2d5d:	55                   	push   rbp
    2d5e:	48 89 e5             	mov    rbp,rsp
    2d61:	89 f8                	mov    eax,edi
    2d63:	88 45 fc             	mov    BYTE PTR [rbp-0x4],al
    2d66:	0f be 45 fc          	movsx  eax,BYTE PTR [rbp-0x4]
    2d6a:	c1 e0 04             	shl    eax,0x4
    2d6d:	0f b6 d0             	movzx  edx,al
    2d70:	0f b6 45 fc          	movzx  eax,BYTE PTR [rbp-0x4]
    2d74:	c0 f8 04             	sar    al,0x4
    2d77:	0f be c0             	movsx  eax,al
    2d7a:	01 d0                	add    eax,edx
    2d7c:	83 f8 76             	cmp    eax,0x76
    2d7f:	0f 94 c0             	sete   al
    2d82:	5d                   	pop    rbp
    2d83:	c3                   	ret    

0000000000002d84 <f9439381>:
    2d84:	f3 0f 1e fa          	endbr64 
    2d88:	55                   	push   rbp
    2d89:	48 89 e5             	mov    rbp,rsp
    2d8c:	89 f8                	mov    eax,edi
    2d8e:	88 45 fc             	mov    BYTE PTR [rbp-0x4],al
    2d91:	0f be 45 fc          	movsx  eax,BYTE PTR [rbp-0x4]
    2d95:	c1 e0 04             	shl    eax,0x4
    2d98:	0f b6 d0             	movzx  edx,al
    2d9b:	0f b6 45 fc          	movzx  eax,BYTE PTR [rbp-0x4]
    2d9f:	c0 f8 04             	sar    al,0x4
    2da2:	0f be c0             	movsx  eax,al
    2da5:	01 d0                	add    eax,edx
    2da7:	83 f8 27             	cmp    eax,0x27
    2daa:	0f 94 c0             	sete   al
    2dad:	5d                   	pop    rbp
    2dae:	c3                   	ret    

0000000000002daf <f9055518>:
    2daf:	f3 0f 1e fa          	endbr64 
    2db3:	55                   	push   rbp
    2db4:	48 89 e5             	mov    rbp,rsp
    2db7:	89 f8                	mov    eax,edi
    2db9:	88 45 fc             	mov    BYTE PTR [rbp-0x4],al
    2dbc:	0f be 45 fc          	movsx  eax,BYTE PTR [rbp-0x4]
    2dc0:	c1 e0 04             	shl    eax,0x4
    2dc3:	0f b6 d0             	movzx  edx,al
    2dc6:	0f b6 45 fc          	movzx  eax,BYTE PTR [rbp-0x4]
    2dca:	c0 f8 04             	sar    al,0x4
    2dcd:	0f be c0             	movsx  eax,al
    2dd0:	01 d0                	add    eax,edx
    2dd2:	83 f8 43             	cmp    eax,0x43
    2dd5:	0f 94 c0             	sete   al
    2dd8:	5d                   	pop    rbp
    2dd9:	c3                   	ret    

0000000000002dda <f9075068>:
    2dda:	f3 0f 1e fa          	endbr64 
    2dde:	55                   	push   rbp
    2ddf:	48 89 e5             	mov    rbp,rsp
    2de2:	89 f8                	mov    eax,edi
    2de4:	88 45 fc             	mov    BYTE PTR [rbp-0x4],al
    2de7:	0f be 45 fc          	movsx  eax,BYTE PTR [rbp-0x4]
    2deb:	c1 e0 04             	shl    eax,0x4
    2dee:	0f b6 d0             	movzx  edx,al
    2df1:	0f b6 45 fc          	movzx  eax,BYTE PTR [rbp-0x4]
    2df5:	c0 f8 04             	sar    al,0x4
    2df8:	0f be c0             	movsx  eax,al
    2dfb:	01 d0                	add    eax,edx
    2dfd:	83 f8 47             	cmp    eax,0x47
    2e00:	0f 94 c0             	sete   al
    2e03:	5d                   	pop    rbp
    2e04:	c3                   	ret    

0000000000002e05 <f9635223>:
    2e05:	f3 0f 1e fa          	endbr64 
    2e09:	55                   	push   rbp
    2e0a:	48 89 e5             	mov    rbp,rsp
    2e0d:	89 f8                	mov    eax,edi
    2e0f:	88 45 fc             	mov    BYTE PTR [rbp-0x4],al
    2e12:	0f be 45 fc          	movsx  eax,BYTE PTR [rbp-0x4]
    2e16:	c1 e0 04             	shl    eax,0x4
    2e19:	0f b6 d0             	movzx  edx,al
    2e1c:	0f b6 45 fc          	movzx  eax,BYTE PTR [rbp-0x4]
    2e20:	c0 f8 04             	sar    al,0x4
    2e23:	0f be c0             	movsx  eax,al
    2e26:	01 d0                	add    eax,edx
    2e28:	83 f8 37             	cmp    eax,0x37
    2e2b:	0f 94 c0             	sete   al
    2e2e:	5d                   	pop    rbp
    2e2f:	c3                   	ret    

0000000000002e30 <f9449880>:
    2e30:	f3 0f 1e fa          	endbr64 
    2e34:	55                   	push   rbp
    2e35:	48 89 e5             	mov    rbp,rsp
    2e38:	89 f8                	mov    eax,edi
    2e3a:	88 45 fc             	mov    BYTE PTR [rbp-0x4],al
    2e3d:	0f be 45 fc          	movsx  eax,BYTE PTR [rbp-0x4]
    2e41:	c1 e0 04             	shl    eax,0x4
    2e44:	0f b6 d0             	movzx  edx,al
    2e47:	0f b6 45 fc          	movzx  eax,BYTE PTR [rbp-0x4]
    2e4b:	c0 f8 04             	sar    al,0x4
    2e4e:	0f be c0             	movsx  eax,al
    2e51:	01 d0                	add    eax,edx
    2e53:	3d f5 00 00 00       	cmp    eax,0xf5
    2e58:	0f 94 c0             	sete   al
    2e5b:	5d                   	pop    rbp
    2e5c:	c3                   	ret    

0000000000002e5d <f9273721>:
    2e5d:	f3 0f 1e fa          	endbr64 
    2e61:	55                   	push   rbp
    2e62:	48 89 e5             	mov    rbp,rsp
    2e65:	89 f8                	mov    eax,edi
    2e67:	88 45 fc             	mov    BYTE PTR [rbp-0x4],al
    2e6a:	0f be 45 fc          	movsx  eax,BYTE PTR [rbp-0x4]
    2e6e:	c1 e0 04             	shl    eax,0x4
    2e71:	0f b6 d0             	movzx  edx,al
    2e74:	0f b6 45 fc          	movzx  eax,BYTE PTR [rbp-0x4]
    2e78:	c0 f8 04             	sar    al,0x4
    2e7b:	0f be c0             	movsx  eax,al
    2e7e:	01 d0                	add    eax,edx
    2e80:	83 f8 66             	cmp    eax,0x66
    2e83:	0f 94 c0             	sete   al
    2e86:	5d                   	pop    rbp
    2e87:	c3                   	ret    

0000000000002e88 <f4577902>:
    2e88:	f3 0f 1e fa          	endbr64 
    2e8c:	55                   	push   rbp
    2e8d:	48 89 e5             	mov    rbp,rsp
    2e90:	89 f8                	mov    eax,edi
    2e92:	88 45 fc             	mov    BYTE PTR [rbp-0x4],al
    2e95:	0f be 45 fc          	movsx  eax,BYTE PTR [rbp-0x4]
    2e99:	c1 e0 04             	shl    eax,0x4
    2e9c:	0f b6 d0             	movzx  edx,al
    2e9f:	0f b6 45 fc          	movzx  eax,BYTE PTR [rbp-0x4]
    2ea3:	c0 f8 04             	sar    al,0x4
    2ea6:	0f be c0             	movsx  eax,al
    2ea9:	01 d0                	add    eax,edx
    2eab:	83 f8 03             	cmp    eax,0x3
    2eae:	0f 94 c0             	sete   al
    2eb1:	5d                   	pop    rbp
    2eb2:	c3                   	ret    

0000000000002eb3 <f5841651>:
    2eb3:	f3 0f 1e fa          	endbr64 
    2eb7:	55                   	push   rbp
    2eb8:	48 89 e5             	mov    rbp,rsp
    2ebb:	89 f8                	mov    eax,edi
    2ebd:	88 45 fc             	mov    BYTE PTR [rbp-0x4],al
    2ec0:	0f be 45 fc          	movsx  eax,BYTE PTR [rbp-0x4]
    2ec4:	c1 e0 04             	shl    eax,0x4
    2ec7:	0f b6 d0             	movzx  edx,al
    2eca:	0f b6 45 fc          	movzx  eax,BYTE PTR [rbp-0x4]
    2ece:	c0 f8 04             	sar    al,0x4
    2ed1:	0f be c0             	movsx  eax,al
    2ed4:	01 d0                	add    eax,edx
    2ed6:	83 f8 27             	cmp    eax,0x27
    2ed9:	0f 94 c0             	sete   al
    2edc:	5d                   	pop    rbp
    2edd:	c3                   	ret    

0000000000002ede <f5111051>:
    2ede:	f3 0f 1e fa          	endbr64 
    2ee2:	55                   	push   rbp
    2ee3:	48 89 e5             	mov    rbp,rsp
    2ee6:	89 f8                	mov    eax,edi
    2ee8:	88 45 fc             	mov    BYTE PTR [rbp-0x4],al
    2eeb:	0f be 45 fc          	movsx  eax,BYTE PTR [rbp-0x4]
    2eef:	c1 e0 04             	shl    eax,0x4
    2ef2:	0f b6 d0             	movzx  edx,al
    2ef5:	0f b6 45 fc          	movzx  eax,BYTE PTR [rbp-0x4]
    2ef9:	c0 f8 04             	sar    al,0x4
    2efc:	0f be c0             	movsx  eax,al
    2eff:	01 d0                	add    eax,edx
    2f01:	3d f5 00 00 00       	cmp    eax,0xf5
    2f06:	0f 94 c0             	sete   al
    2f09:	5d                   	pop    rbp
    2f0a:	c3                   	ret    

0000000000002f0b <f47276>:
    2f0b:	f3 0f 1e fa          	endbr64 
    2f0f:	55                   	push   rbp
    2f10:	48 89 e5             	mov    rbp,rsp
    2f13:	89 f8                	mov    eax,edi
    2f15:	88 45 fc             	mov    BYTE PTR [rbp-0x4],al
    2f18:	0f be 45 fc          	movsx  eax,BYTE PTR [rbp-0x4]
    2f1c:	c1 e0 04             	shl    eax,0x4
    2f1f:	0f b6 d0             	movzx  edx,al
    2f22:	0f b6 45 fc          	movzx  eax,BYTE PTR [rbp-0x4]
    2f26:	c0 f8 04             	sar    al,0x4
    2f29:	0f be c0             	movsx  eax,al
    2f2c:	01 d0                	add    eax,edx
    2f2e:	83 f8 37             	cmp    eax,0x37
    2f31:	0f 94 c0             	sete   al
    2f34:	5d                   	pop    rbp
    2f35:	c3                   	ret    

0000000000002f36 <f6350455>:
    2f36:	f3 0f 1e fa          	endbr64 
    2f3a:	55                   	push   rbp
    2f3b:	48 89 e5             	mov    rbp,rsp
    2f3e:	89 f8                	mov    eax,edi
    2f40:	88 45 fc             	mov    BYTE PTR [rbp-0x4],al
    2f43:	0f be 45 fc          	movsx  eax,BYTE PTR [rbp-0x4]
    2f47:	c1 e0 04             	shl    eax,0x4
    2f4a:	0f b6 d0             	movzx  edx,al
    2f4d:	0f b6 45 fc          	movzx  eax,BYTE PTR [rbp-0x4]
    2f51:	c0 f8 04             	sar    al,0x4
    2f54:	0f be c0             	movsx  eax,al
    2f57:	01 d0                	add    eax,edx
    2f59:	83 f8 03             	cmp    eax,0x3
    2f5c:	0f 94 c0             	sete   al
    2f5f:	5d                   	pop    rbp
    2f60:	c3                   	ret    

0000000000002f61 <f2402377>:
    2f61:	f3 0f 1e fa          	endbr64 
    2f65:	55                   	push   rbp
    2f66:	48 89 e5             	mov    rbp,rsp
    2f69:	89 f8                	mov    eax,edi
    2f6b:	88 45 fc             	mov    BYTE PTR [rbp-0x4],al
    2f6e:	0f be 45 fc          	movsx  eax,BYTE PTR [rbp-0x4]
    2f72:	c1 e0 04             	shl    eax,0x4
    2f75:	0f b6 d0             	movzx  edx,al
    2f78:	0f b6 45 fc          	movzx  eax,BYTE PTR [rbp-0x4]
    2f7c:	c0 f8 04             	sar    al,0x4
    2f7f:	0f be c0             	movsx  eax,al
    2f82:	01 d0                	add    eax,edx
    2f84:	3d c6 00 00 00       	cmp    eax,0xc6
    2f89:	0f 94 c0             	sete   al
    2f8c:	5d                   	pop    rbp
    2f8d:	c3                   	ret    

0000000000002f8e <f8761847>:
    2f8e:	f3 0f 1e fa          	endbr64 
    2f92:	55                   	push   rbp
    2f93:	48 89 e5             	mov    rbp,rsp
    2f96:	89 f8                	mov    eax,edi
    2f98:	88 45 fc             	mov    BYTE PTR [rbp-0x4],al
    2f9b:	0f be 45 fc          	movsx  eax,BYTE PTR [rbp-0x4]
    2f9f:	c1 e0 04             	shl    eax,0x4
    2fa2:	0f b6 d0             	movzx  edx,al
    2fa5:	0f b6 45 fc          	movzx  eax,BYTE PTR [rbp-0x4]
    2fa9:	c0 f8 04             	sar    al,0x4
    2fac:	0f be c0             	movsx  eax,al
    2faf:	01 d0                	add    eax,edx
    2fb1:	83 f8 67             	cmp    eax,0x67
    2fb4:	0f 94 c0             	sete   al
    2fb7:	5d                   	pop    rbp
    2fb8:	c3                   	ret    

0000000000002fb9 <f1849991>:
    2fb9:	f3 0f 1e fa          	endbr64 
    2fbd:	55                   	push   rbp
    2fbe:	48 89 e5             	mov    rbp,rsp
    2fc1:	89 f8                	mov    eax,edi
    2fc3:	88 45 fc             	mov    BYTE PTR [rbp-0x4],al
    2fc6:	0f be 45 fc          	movsx  eax,BYTE PTR [rbp-0x4]
    2fca:	c1 e0 04             	shl    eax,0x4
    2fcd:	0f b6 d0             	movzx  edx,al
    2fd0:	0f b6 45 fc          	movzx  eax,BYTE PTR [rbp-0x4]
    2fd4:	c0 f8 04             	sar    al,0x4
    2fd7:	0f be c0             	movsx  eax,al
    2fda:	01 d0                	add    eax,edx
    2fdc:	83 f8 13             	cmp    eax,0x13
    2fdf:	0f 94 c0             	sete   al
    2fe2:	5d                   	pop    rbp
    2fe3:	c3                   	ret    

0000000000002fe4 <f9094552>:
    2fe4:	f3 0f 1e fa          	endbr64 
    2fe8:	55                   	push   rbp
    2fe9:	48 89 e5             	mov    rbp,rsp
    2fec:	89 f8                	mov    eax,edi
    2fee:	88 45 fc             	mov    BYTE PTR [rbp-0x4],al
    2ff1:	0f be 45 fc          	movsx  eax,BYTE PTR [rbp-0x4]
    2ff5:	c1 e0 04             	shl    eax,0x4
    2ff8:	0f b6 d0             	movzx  edx,al
    2ffb:	0f b6 45 fc          	movzx  eax,BYTE PTR [rbp-0x4]
    2fff:	c0 f8 04             	sar    al,0x4
    3002:	0f be c0             	movsx  eax,al
    3005:	01 d0                	add    eax,edx
    3007:	3d 96 00 00 00       	cmp    eax,0x96
    300c:	0f 94 c0             	sete   al
    300f:	5d                   	pop    rbp
    3010:	c3                   	ret    

0000000000003011 <f217736>:
    3011:	f3 0f 1e fa          	endbr64 
    3015:	55                   	push   rbp
    3016:	48 89 e5             	mov    rbp,rsp
    3019:	89 f8                	mov    eax,edi
    301b:	88 45 fc             	mov    BYTE PTR [rbp-0x4],al
    301e:	0f be 45 fc          	movsx  eax,BYTE PTR [rbp-0x4]
    3022:	c1 e0 04             	shl    eax,0x4
    3025:	0f b6 d0             	movzx  edx,al
    3028:	0f b6 45 fc          	movzx  eax,BYTE PTR [rbp-0x4]
    302c:	c0 f8 04             	sar    al,0x4
    302f:	0f be c0             	movsx  eax,al
    3032:	01 d0                	add    eax,edx
    3034:	3d e6 00 00 00       	cmp    eax,0xe6
    3039:	0f 94 c0             	sete   al
    303c:	5d                   	pop    rbp
    303d:	c3                   	ret    

000000000000303e <f306999>:
    303e:	f3 0f 1e fa          	endbr64 
    3042:	55                   	push   rbp
    3043:	48 89 e5             	mov    rbp,rsp
    3046:	89 f8                	mov    eax,edi
    3048:	88 45 fc             	mov    BYTE PTR [rbp-0x4],al
    304b:	0f be 45 fc          	movsx  eax,BYTE PTR [rbp-0x4]
    304f:	c1 e0 04             	shl    eax,0x4
    3052:	0f b6 d0             	movzx  edx,al
    3055:	0f b6 45 fc          	movzx  eax,BYTE PTR [rbp-0x4]
    3059:	c0 f8 04             	sar    al,0x4
    305c:	0f be c0             	movsx  eax,al
    305f:	01 d0                	add    eax,edx
    3061:	3d 93 00 00 00       	cmp    eax,0x93
    3066:	0f 94 c0             	sete   al
    3069:	5d                   	pop    rbp
    306a:	c3                   	ret    

000000000000306b <f7863001>:
    306b:	f3 0f 1e fa          	endbr64 
    306f:	55                   	push   rbp
    3070:	48 89 e5             	mov    rbp,rsp
    3073:	89 f8                	mov    eax,edi
    3075:	88 45 fc             	mov    BYTE PTR [rbp-0x4],al
    3078:	0f be 45 fc          	movsx  eax,BYTE PTR [rbp-0x4]
    307c:	c1 e0 04             	shl    eax,0x4
    307f:	0f b6 d0             	movzx  edx,al
    3082:	0f b6 45 fc          	movzx  eax,BYTE PTR [rbp-0x4]
    3086:	c0 f8 04             	sar    al,0x4
    3089:	0f be c0             	movsx  eax,al
    308c:	01 d0                	add    eax,edx
    308e:	3d f5 00 00 00       	cmp    eax,0xf5
    3093:	0f 94 c0             	sete   al
    3096:	5d                   	pop    rbp
    3097:	c3                   	ret    

0000000000003098 <f3462476>:
    3098:	f3 0f 1e fa          	endbr64 
    309c:	55                   	push   rbp
    309d:	48 89 e5             	mov    rbp,rsp
    30a0:	89 f8                	mov    eax,edi
    30a2:	88 45 fc             	mov    BYTE PTR [rbp-0x4],al
    30a5:	0f be 45 fc          	movsx  eax,BYTE PTR [rbp-0x4]
    30a9:	c1 e0 04             	shl    eax,0x4
    30ac:	0f b6 d0             	movzx  edx,al
    30af:	0f b6 45 fc          	movzx  eax,BYTE PTR [rbp-0x4]
    30b3:	c0 f8 04             	sar    al,0x4
    30b6:	0f be c0             	movsx  eax,al
    30b9:	01 d0                	add    eax,edx
    30bb:	83 f8 47             	cmp    eax,0x47
    30be:	0f 94 c0             	sete   al
    30c1:	5d                   	pop    rbp
    30c2:	c3                   	ret    

00000000000030c3 <f2419198>:
    30c3:	f3 0f 1e fa          	endbr64 
    30c7:	55                   	push   rbp
    30c8:	48 89 e5             	mov    rbp,rsp
    30cb:	89 f8                	mov    eax,edi
    30cd:	88 45 fc             	mov    BYTE PTR [rbp-0x4],al
    30d0:	0f be 45 fc          	movsx  eax,BYTE PTR [rbp-0x4]
    30d4:	c1 e0 04             	shl    eax,0x4
    30d7:	0f b6 d0             	movzx  edx,al
    30da:	0f b6 45 fc          	movzx  eax,BYTE PTR [rbp-0x4]
    30de:	c0 f8 04             	sar    al,0x4
    30e1:	0f be c0             	movsx  eax,al
    30e4:	01 d0                	add    eax,edx
    30e6:	3d 86 00 00 00       	cmp    eax,0x86
    30eb:	0f 94 c0             	sete   al
    30ee:	5d                   	pop    rbp
    30ef:	c3                   	ret    

00000000000030f0 <f846584>:
    30f0:	f3 0f 1e fa          	endbr64 
    30f4:	55                   	push   rbp
    30f5:	48 89 e5             	mov    rbp,rsp
    30f8:	89 f8                	mov    eax,edi
    30fa:	88 45 fc             	mov    BYTE PTR [rbp-0x4],al
    30fd:	0f be 45 fc          	movsx  eax,BYTE PTR [rbp-0x4]
    3101:	c1 e0 04             	shl    eax,0x4
    3104:	0f b6 d0             	movzx  edx,al
    3107:	0f b6 45 fc          	movzx  eax,BYTE PTR [rbp-0x4]
    310b:	c0 f8 04             	sar    al,0x4
    310e:	0f be c0             	movsx  eax,al
    3111:	01 d0                	add    eax,edx
    3113:	83 f8 33             	cmp    eax,0x33
    3116:	0f 94 c0             	sete   al
    3119:	5d                   	pop    rbp
    311a:	c3                   	ret    

000000000000311b <f9397951>:
    311b:	f3 0f 1e fa          	endbr64 
    311f:	55                   	push   rbp
    3120:	48 89 e5             	mov    rbp,rsp
    3123:	89 f8                	mov    eax,edi
    3125:	88 45 fc             	mov    BYTE PTR [rbp-0x4],al
    3128:	0f be 45 fc          	movsx  eax,BYTE PTR [rbp-0x4]
    312c:	c1 e0 04             	shl    eax,0x4
    312f:	0f b6 d0             	movzx  edx,al
    3132:	0f b6 45 fc          	movzx  eax,BYTE PTR [rbp-0x4]
    3136:	c0 f8 04             	sar    al,0x4
    3139:	0f be c0             	movsx  eax,al
    313c:	01 d0                	add    eax,edx
    313e:	3d f5 00 00 00       	cmp    eax,0xf5
    3143:	0f 94 c0             	sete   al
    3146:	5d                   	pop    rbp
    3147:	c3                   	ret    

0000000000003148 <f408757>:
    3148:	f3 0f 1e fa          	endbr64 
    314c:	55                   	push   rbp
    314d:	48 89 e5             	mov    rbp,rsp
    3150:	89 f8                	mov    eax,edi
    3152:	88 45 fc             	mov    BYTE PTR [rbp-0x4],al
    3155:	0f be 45 fc          	movsx  eax,BYTE PTR [rbp-0x4]
    3159:	c1 e0 04             	shl    eax,0x4
    315c:	0f b6 d0             	movzx  edx,al
    315f:	0f b6 45 fc          	movzx  eax,BYTE PTR [rbp-0x4]
    3163:	c0 f8 04             	sar    al,0x4
    3166:	0f be c0             	movsx  eax,al
    3169:	01 d0                	add    eax,edx
    316b:	83 f8 56             	cmp    eax,0x56
    316e:	0f 94 c0             	sete   al
    3171:	5d                   	pop    rbp
    3172:	c3                   	ret    

0000000000003173 <f7515021>:
    3173:	f3 0f 1e fa          	endbr64 
    3177:	55                   	push   rbp
    3178:	48 89 e5             	mov    rbp,rsp
    317b:	89 f8                	mov    eax,edi
    317d:	88 45 fc             	mov    BYTE PTR [rbp-0x4],al
    3180:	0f be 45 fc          	movsx  eax,BYTE PTR [rbp-0x4]
    3184:	c1 e0 04             	shl    eax,0x4
    3187:	0f b6 d0             	movzx  edx,al
    318a:	0f b6 45 fc          	movzx  eax,BYTE PTR [rbp-0x4]
    318e:	c0 f8 04             	sar    al,0x4
    3191:	0f be c0             	movsx  eax,al
    3194:	01 d0                	add    eax,edx
    3196:	83 f8 43             	cmp    eax,0x43
    3199:	0f 94 c0             	sete   al
    319c:	5d                   	pop    rbp
    319d:	c3                   	ret    

000000000000319e <f5079579>:
    319e:	f3 0f 1e fa          	endbr64 
    31a2:	55                   	push   rbp
    31a3:	48 89 e5             	mov    rbp,rsp
    31a6:	89 f8                	mov    eax,edi
    31a8:	88 45 fc             	mov    BYTE PTR [rbp-0x4],al
    31ab:	0f be 45 fc          	movsx  eax,BYTE PTR [rbp-0x4]
    31af:	c1 e0 04             	shl    eax,0x4
    31b2:	0f b6 d0             	movzx  edx,al
    31b5:	0f b6 45 fc          	movzx  eax,BYTE PTR [rbp-0x4]
    31b9:	c0 f8 04             	sar    al,0x4
    31bc:	0f be c0             	movsx  eax,al
    31bf:	01 d0                	add    eax,edx
    31c1:	83 f8 37             	cmp    eax,0x37
    31c4:	0f 94 c0             	sete   al
    31c7:	5d                   	pop    rbp
    31c8:	c3                   	ret    

00000000000031c9 <f1334508>:
    31c9:	f3 0f 1e fa          	endbr64 
    31cd:	55                   	push   rbp
    31ce:	48 89 e5             	mov    rbp,rsp
    31d1:	89 f8                	mov    eax,edi
    31d3:	88 45 fc             	mov    BYTE PTR [rbp-0x4],al
    31d6:	0f be 45 fc          	movsx  eax,BYTE PTR [rbp-0x4]
    31da:	c1 e0 04             	shl    eax,0x4
    31dd:	0f b6 d0             	movzx  edx,al
    31e0:	0f b6 45 fc          	movzx  eax,BYTE PTR [rbp-0x4]
    31e4:	c0 f8 04             	sar    al,0x4
    31e7:	0f be c0             	movsx  eax,al
    31ea:	01 d0                	add    eax,edx
    31ec:	3d 97 00 00 00       	cmp    eax,0x97
    31f1:	0f 94 c0             	sete   al
    31f4:	5d                   	pop    rbp
    31f5:	c3                   	ret    

00000000000031f6 <f2006371>:
    31f6:	f3 0f 1e fa          	endbr64 
    31fa:	55                   	push   rbp
    31fb:	48 89 e5             	mov    rbp,rsp
    31fe:	89 f8                	mov    eax,edi
    3200:	88 45 fc             	mov    BYTE PTR [rbp-0x4],al
    3203:	0f be 45 fc          	movsx  eax,BYTE PTR [rbp-0x4]
    3207:	c1 e0 04             	shl    eax,0x4
    320a:	0f b6 d0             	movzx  edx,al
    320d:	0f b6 45 fc          	movzx  eax,BYTE PTR [rbp-0x4]
    3211:	c0 f8 04             	sar    al,0x4
    3214:	0f be c0             	movsx  eax,al
    3217:	01 d0                	add    eax,edx
    3219:	3d f5 00 00 00       	cmp    eax,0xf5
    321e:	0f 94 c0             	sete   al
    3221:	5d                   	pop    rbp
    3222:	c3                   	ret    

0000000000003223 <f8066792>:
    3223:	f3 0f 1e fa          	endbr64 
    3227:	55                   	push   rbp
    3228:	48 89 e5             	mov    rbp,rsp
    322b:	89 f8                	mov    eax,edi
    322d:	88 45 fc             	mov    BYTE PTR [rbp-0x4],al
    3230:	0f be 45 fc          	movsx  eax,BYTE PTR [rbp-0x4]
    3234:	c1 e0 04             	shl    eax,0x4
    3237:	0f b6 d0             	movzx  edx,al
    323a:	0f b6 45 fc          	movzx  eax,BYTE PTR [rbp-0x4]
    323e:	c0 f8 04             	sar    al,0x4
    3241:	0f be c0             	movsx  eax,al
    3244:	01 d0                	add    eax,edx
    3246:	83 f8 36             	cmp    eax,0x36
    3249:	0f 94 c0             	sete   al
    324c:	5d                   	pop    rbp
    324d:	c3                   	ret    

000000000000324e <f3842174>:
    324e:	f3 0f 1e fa          	endbr64 
    3252:	55                   	push   rbp
    3253:	48 89 e5             	mov    rbp,rsp
    3256:	89 f8                	mov    eax,edi
    3258:	88 45 fc             	mov    BYTE PTR [rbp-0x4],al
    325b:	0f be 45 fc          	movsx  eax,BYTE PTR [rbp-0x4]
    325f:	c1 e0 04             	shl    eax,0x4
    3262:	0f b6 d0             	movzx  edx,al
    3265:	0f b6 45 fc          	movzx  eax,BYTE PTR [rbp-0x4]
    3269:	c0 f8 04             	sar    al,0x4
    326c:	0f be c0             	movsx  eax,al
    326f:	01 d0                	add    eax,edx
    3271:	3d 86 00 00 00       	cmp    eax,0x86
    3276:	0f 94 c0             	sete   al
    3279:	5d                   	pop    rbp
    327a:	c3                   	ret    

000000000000327b <f1988839>:
    327b:	f3 0f 1e fa          	endbr64 
    327f:	55                   	push   rbp
    3280:	48 89 e5             	mov    rbp,rsp
    3283:	89 f8                	mov    eax,edi
    3285:	88 45 fc             	mov    BYTE PTR [rbp-0x4],al
    3288:	0f be 45 fc          	movsx  eax,BYTE PTR [rbp-0x4]
    328c:	c1 e0 04             	shl    eax,0x4
    328f:	0f b6 d0             	movzx  edx,al
    3292:	0f b6 45 fc          	movzx  eax,BYTE PTR [rbp-0x4]
    3296:	c0 f8 04             	sar    al,0x4
    3299:	0f be c0             	movsx  eax,al
    329c:	01 d0                	add    eax,edx
    329e:	83 f8 43             	cmp    eax,0x43
    32a1:	0f 94 c0             	sete   al
    32a4:	5d                   	pop    rbp
    32a5:	c3                   	ret    

00000000000032a6 <f9928926>:
    32a6:	f3 0f 1e fa          	endbr64 
    32aa:	55                   	push   rbp
    32ab:	48 89 e5             	mov    rbp,rsp
    32ae:	89 f8                	mov    eax,edi
    32b0:	88 45 fc             	mov    BYTE PTR [rbp-0x4],al
    32b3:	0f be 45 fc          	movsx  eax,BYTE PTR [rbp-0x4]
    32b7:	c1 e0 04             	shl    eax,0x4
    32ba:	0f b6 d0             	movzx  edx,al
    32bd:	0f b6 45 fc          	movzx  eax,BYTE PTR [rbp-0x4]
    32c1:	c0 f8 04             	sar    al,0x4
    32c4:	0f be c0             	movsx  eax,al
    32c7:	01 d0                	add    eax,edx
    32c9:	3d c6 00 00 00       	cmp    eax,0xc6
    32ce:	0f 94 c0             	sete   al
    32d1:	5d                   	pop    rbp
    32d2:	c3                   	ret    

00000000000032d3 <f8960275>:
    32d3:	f3 0f 1e fa          	endbr64 
    32d7:	55                   	push   rbp
    32d8:	48 89 e5             	mov    rbp,rsp
    32db:	89 f8                	mov    eax,edi
    32dd:	88 45 fc             	mov    BYTE PTR [rbp-0x4],al
    32e0:	0f be 45 fc          	movsx  eax,BYTE PTR [rbp-0x4]
    32e4:	c1 e0 04             	shl    eax,0x4
    32e7:	0f b6 d0             	movzx  edx,al
    32ea:	0f b6 45 fc          	movzx  eax,BYTE PTR [rbp-0x4]
    32ee:	c0 f8 04             	sar    al,0x4
    32f1:	0f be c0             	movsx  eax,al
    32f4:	01 d0                	add    eax,edx
    32f6:	3d c6 00 00 00       	cmp    eax,0xc6
    32fb:	0f 94 c0             	sete   al
    32fe:	5d                   	pop    rbp
    32ff:	c3                   	ret    

0000000000003300 <f5663288>:
    3300:	f3 0f 1e fa          	endbr64 
    3304:	55                   	push   rbp
    3305:	48 89 e5             	mov    rbp,rsp
    3308:	89 f8                	mov    eax,edi
    330a:	88 45 fc             	mov    BYTE PTR [rbp-0x4],al
    330d:	0f be 45 fc          	movsx  eax,BYTE PTR [rbp-0x4]
    3311:	c1 e0 04             	shl    eax,0x4
    3314:	0f b6 d0             	movzx  edx,al
    3317:	0f b6 45 fc          	movzx  eax,BYTE PTR [rbp-0x4]
    331b:	c0 f8 04             	sar    al,0x4
    331e:	0f be c0             	movsx  eax,al
    3321:	01 d0                	add    eax,edx
    3323:	83 f8 33             	cmp    eax,0x33
    3326:	0f 94 c0             	sete   al
    3329:	5d                   	pop    rbp
    332a:	c3                   	ret    

000000000000332b <f1103067>:
    332b:	f3 0f 1e fa          	endbr64 
    332f:	55                   	push   rbp
    3330:	48 89 e5             	mov    rbp,rsp
    3333:	89 f8                	mov    eax,edi
    3335:	88 45 fc             	mov    BYTE PTR [rbp-0x4],al
    3338:	0f be 45 fc          	movsx  eax,BYTE PTR [rbp-0x4]
    333c:	c1 e0 04             	shl    eax,0x4
    333f:	0f b6 d0             	movzx  edx,al
    3342:	0f b6 45 fc          	movzx  eax,BYTE PTR [rbp-0x4]
    3346:	c0 f8 04             	sar    al,0x4
    3349:	0f be c0             	movsx  eax,al
    334c:	01 d0                	add    eax,edx
    334e:	3d e6 00 00 00       	cmp    eax,0xe6
    3353:	0f 94 c0             	sete   al
    3356:	5d                   	pop    rbp
    3357:	c3                   	ret    

0000000000003358 <f4973817>:
    3358:	f3 0f 1e fa          	endbr64 
    335c:	55                   	push   rbp
    335d:	48 89 e5             	mov    rbp,rsp
    3360:	89 f8                	mov    eax,edi
    3362:	88 45 fc             	mov    BYTE PTR [rbp-0x4],al
    3365:	0f be 45 fc          	movsx  eax,BYTE PTR [rbp-0x4]
    3369:	c1 e0 04             	shl    eax,0x4
    336c:	0f b6 d0             	movzx  edx,al
    336f:	0f b6 45 fc          	movzx  eax,BYTE PTR [rbp-0x4]
    3373:	c0 f8 04             	sar    al,0x4
    3376:	0f be c0             	movsx  eax,al
    3379:	01 d0                	add    eax,edx
    337b:	83 f8 76             	cmp    eax,0x76
    337e:	0f 94 c0             	sete   al
    3381:	5d                   	pop    rbp
    3382:	c3                   	ret    

0000000000003383 <f5477172>:
    3383:	f3 0f 1e fa          	endbr64 
    3387:	55                   	push   rbp
    3388:	48 89 e5             	mov    rbp,rsp
    338b:	89 f8                	mov    eax,edi
    338d:	88 45 fc             	mov    BYTE PTR [rbp-0x4],al
    3390:	0f be 45 fc          	movsx  eax,BYTE PTR [rbp-0x4]
    3394:	c1 e0 04             	shl    eax,0x4
    3397:	0f b6 d0             	movzx  edx,al
    339a:	0f b6 45 fc          	movzx  eax,BYTE PTR [rbp-0x4]
    339e:	c0 f8 04             	sar    al,0x4
    33a1:	0f be c0             	movsx  eax,al
    33a4:	01 d0                	add    eax,edx
    33a6:	83 f8 33             	cmp    eax,0x33
    33a9:	0f 94 c0             	sete   al
    33ac:	5d                   	pop    rbp
    33ad:	c3                   	ret    

00000000000033ae <f4124796>:
    33ae:	f3 0f 1e fa          	endbr64 
    33b2:	55                   	push   rbp
    33b3:	48 89 e5             	mov    rbp,rsp
    33b6:	89 f8                	mov    eax,edi
    33b8:	88 45 fc             	mov    BYTE PTR [rbp-0x4],al
    33bb:	0f be 45 fc          	movsx  eax,BYTE PTR [rbp-0x4]
    33bf:	c1 e0 04             	shl    eax,0x4
    33c2:	0f b6 d0             	movzx  edx,al
    33c5:	0f b6 45 fc          	movzx  eax,BYTE PTR [rbp-0x4]
    33c9:	c0 f8 04             	sar    al,0x4
    33cc:	0f be c0             	movsx  eax,al
    33cf:	01 d0                	add    eax,edx
    33d1:	3d d7 00 00 00       	cmp    eax,0xd7
    33d6:	0f 94 c0             	sete   al
    33d9:	5d                   	pop    rbp
    33da:	c3                   	ret    
